Certificate:
    Data:
        Version: 3 (0x2)
        Serial Number:
            d0:a4:69:41:4e:c5:c5:bb:12:81:fc:00:5b:ac:fe:70
        Signature Algorithm: sha256WithRSAEncryption
        Issuer: C=ES, O=teleco, CN=Root CA
        Validity
            Not Before: Jun 29 17:52:38 2024 GMT
            Not After : Jun 27 17:52:38 2034 GMT
        Subject: C=ES, O=teleco, CN=client1
        Subject Public Key Info:
            Public Key Algorithm: rsaEncryption
                Public-Key: (2048 bit)
                Modulus:
                    00:a8:92:b6:d4:6d:e2:ad:2d:7e:d2:12:bc:ff:f8:
                    bf:30:0c:a8:cb:fc:76:38:ad:fb:0f:7e:af:7d:be:
                    89:1b:3e:6b:74:a7:cd:97:de:5a:ae:62:8a:d4:16:
                    a0:8f:ba:53:ab:78:f1:b0:44:00:db:69:33:1a:aa:
                    56:94:9a:c2:14:37:22:20:8c:c0:79:db:0e:c4:40:
                    5d:06:d0:24:31:0e:8a:be:69:1e:9d:f2:9b:b4:9f:
                    73:51:bc:2a:66:03:64:49:3b:15:47:12:d0:2a:6e:
                    73:92:ea:1f:f2:ed:fd:94:3c:ef:91:4b:cb:b9:71:
                    8d:43:ea:20:f5:cc:a9:ac:2c:d1:e6:91:92:20:7e:
                    68:94:83:aa:77:50:04:e5:60:86:6d:b0:01:66:03:
                    e2:b7:17:a3:3e:c5:0f:f5:a4:59:89:74:3c:a0:c3:
                    32:fb:c2:d0:25:35:1d:75:41:46:dc:aa:3c:bd:ce:
                    93:b7:8a:61:35:39:59:42:ff:54:7c:5d:c1:33:27:
                    30:bd:7d:72:f4:77:0a:a2:67:64:cf:0f:0b:52:20:
                    9f:71:0d:d5:0c:19:d2:fe:dc:a7:61:c4:b5:b8:90:
                    18:74:74:c2:d0:24:81:4a:63:7e:c3:ee:f7:d4:7a:
                    32:4d:ed:53:2f:f2:09:e7:fd:a5:0a:97:1f:98:01:
                    54:25
                Exponent: 65537 (0x10001)
        X509v3 extensions:
            Authority Information Access: 
                CA Issuers - URI:http://root-ca.teleco.uvigo/root-ca.crt
                OCSP - URI:http://ocsp.root-ca.teleco.uvigo:9080
            X509v3 Authority Key Identifier: 
                E2:20:C9:E0:9C:74:0C:A1:94:6C:96:E3:77:17:76:FB:D2:E9:9D:25
            X509v3 Basic Constraints: critical
                CA:FALSE
            X509v3 Extended Key Usage: 
                TLS Web Client Authentication
            X509v3 Key Usage: critical
                Digital Signature
            X509v3 Subject Key Identifier: 
                3F:4F:3F:BC:51:EF:87:D4:76:42:E4:81:C5:03:A0:34:8C:60:E9:9A
    Signature Algorithm: sha256WithRSAEncryption
    Signature Value:
        1f:30:41:46:f4:2a:41:f1:c8:6c:9c:bc:4e:f8:fc:4d:96:3a:
        71:d2:d6:06:6e:04:4e:11:4b:ff:0c:b4:7c:cc:43:15:1c:91:
        f0:13:78:72:8d:fc:80:9e:98:5f:c0:06:32:5e:d3:2e:a0:7e:
        66:9d:40:1a:d0:59:eb:6e:c8:dc:a8:f1:fd:74:ee:89:d4:77:
        37:8c:d2:1b:e5:83:f5:ac:d5:78:6a:df:1b:c7:11:04:14:87:
        f8:43:45:7f:9b:3e:fd:1b:18:78:8c:b5:87:ed:31:83:50:b8:
        fc:41:c3:e1:67:12:ff:02:53:d7:13:f2:80:0a:c1:07:b6:3f:
        61:d4:3f:7b:62:25:7a:67:2d:3a:d0:d2:a1:2a:70:05:e3:f0:
        91:d9:0f:40:7a:12:98:ef:db:66:83:ec:7a:ef:79:fe:c5:09:
        03:52:d7:f2:f7:52:48:53:41:d1:09:1d:c5:b1:1e:ba:64:6c:
        ce:cd:73:00:01:24:11:78:b7:ff:a1:6d:f8:ab:35:11:c4:6e:
        55:d4:e4:03:0b:6a:e1:5a:35:f0:58:bb:f6:2e:d1:47:66:ce:
        9e:11:68:3d:ca:d1:31:bf:7d:8d:56:97:45:bb:e1:20:d5:84:
        f8:76:f0:11:8d:5d:f1:a6:b9:68:98:8f:df:76:5f:af:fe:b6:
        72:00:9f:eb:b7:b5:8f:6d:a2:dc:30:9c:fc:a7:87:b9:7e:b3:
        1a:ae:1d:06:a8:9b:d1:87:b9:10:1f:6d:12:a0:53:0a:08:74:
        fa:20:e1:5a:9a:98:e9:c3:bf:34:e9:ba:1e:5b:ec:38:a2:14:
        77:3a:c9:dc:46:3f:38:8b:75:ea:82:4c:a1:9d:3c:82:3a:3c:
        f8:1a:6c:62:7f:ca:78:2d:17:27:a4:b4:fc:27:9d:c6:bc:a6:
        4b:77:64:07:6b:1f:0d:19:9b:6e:40:4a:34:e3:78:67:97:de:
        3e:ba:bd:07:19:71:6c:4a:97:c7:73:41:81:2b:93:c3:9a:23:
        3f:73:20:9c:5f:a4:8c:3b:ea:0c:0b:f7:5d:61:f2:fa:79:67:
        7d:08:28:c7:80:c4:9e:2d:93:ca:86:41:fa:71:92:1d:e4:e8:
        25:60:de:82:2b:f0:1d:ea:d1:e0:7d:94:54:f4:28:2c:ab:d4:
        3c:ad:5c:1f:92:c8:cf:ee:ef:c6:33:81:cf:5c:00:8e:96:35:
        47:83:73:9d:f4:97:d5:a6:94:14:66:90:76:d5:69:00:09:4b:
        a0:3d:8b:42:62:df:4e:a3:4f:38:eb:c3:cf:2c:7a:a3:db:69:
        0b:78:eb:bc:bc:20:27:7a:b3:a0:21:a4:cd:a8:da:33:d0:c0:
        4c:96:da:e2:1c:45:bf:d7
-----BEGIN CERTIFICATE-----
MIIE2jCCAsKgAwIBAgIRANCkaUFOxcW7EoH8AFus/nAwDQYJKoZIhvcNAQELBQAw
MDELMAkGA1UEBhMCRVMxDzANBgNVBAoMBnRlbGVjbzEQMA4GA1UEAwwHUm9vdCBD
QTAeFw0yNDA2MjkxNzUyMzhaFw0zNDA2MjcxNzUyMzhaMDAxCzAJBgNVBAYTAkVT
MQ8wDQYDVQQKDAZ0ZWxlY28xEDAOBgNVBAMMB2NsaWVudDEwggEiMA0GCSqGSIb3
DQEBAQUAA4IBDwAwggEKAoIBAQCokrbUbeKtLX7SErz/+L8wDKjL/HY4rfsPfq99
vokbPmt0p82X3lquYorUFqCPulOrePGwRADbaTMaqlaUmsIUNyIgjMB52w7EQF0G
0CQxDoq+aR6d8pu0n3NRvCpmA2RJOxVHEtAqbnOS6h/y7f2UPO+RS8u5cY1D6iD1
zKmsLNHmkZIgfmiUg6p3UATlYIZtsAFmA+K3F6M+xQ/1pFmJdDygwzL7wtAlNR11
QUbcqjy9zpO3imE1OVlC/1R8XcEzJzC9fXL0dwqiZ2TPDwtSIJ9xDdUMGdL+3Kdh
xLW4kBh0dMLQJIFKY37D7vfUejJN7VMv8gnn/aUKlx+YAVQlAgMBAAGjge4wgesw
dgYIKwYBBQUHAQEEajBoMDMGCCsGAQUFBzAChidodHRwOi8vcm9vdC1jYS50ZWxl
Y28udXZpZ28vcm9vdC1jYS5jcnQwMQYIKwYBBQUHMAGGJWh0dHA6Ly9vY3NwLnJv
b3QtY2EudGVsZWNvLnV2aWdvOjkwODAwHwYDVR0jBBgwFoAU4iDJ4Jx0DKGUbJbj
dxd2+9LpnSUwDAYDVR0TAQH/BAIwADATBgNVHSUEDDAKBggrBgEFBQcDAjAOBgNV
HQ8BAf8EBAMCB4AwHQYDVR0OBBYEFD9PP7xR74fUdkLkgcUDoDSMYOmaMA0GCSqG
SIb3DQEBCwUAA4ICAQAfMEFG9CpB8chsnLxO+PxNljpx0tYGbgROEUv/DLR8zEMV
HJHwE3hyjfyAnphfwAYyXtMuoH5mnUAa0FnrbsjcqPH9dO6J1Hc3jNIb5YP1rNV4
at8bxxEEFIf4Q0V/mz79Gxh4jLWH7TGDULj8QcPhZxL/AlPXE/KACsEHtj9h1D97
YiV6Zy060NKhKnAF4/CR2Q9AehKY79tmg+x673n+xQkDUtfy91JIU0HRCR3FsR66
ZGzOzXMAASQReLf/oW34qzURxG5V1OQDC2rhWjXwWLv2LtFHZs6eEWg9ytExv32N
VpdFu+Eg1YT4dvARjV3xprlomI/fdl+v/rZyAJ/rt7WPbaLcMJz8p4e5frMarh0G
qJvRh7kQH20SoFMKCHT6IOFampjpw7806boeW+w4ohR3OsncRj84i3XqgkyhnTyC
Ojz4Gmxif8p4LRcnpLT8J53GvKZLd2QHax8NGZtuQEo043hnl94+ur0HGXFsSpfH
c0GBK5PDmiM/cyCcX6SMO+oMC/ddYfL6eWd9CCjHgMSeLZPKhkH6cZId5OglYN6C
K/Ad6tHgfZRU9Cgsq9Q8rVwfksjP7u/GM4HPXACOljVHg3Od9JfVppQUZpB21WkA
CUugPYtCYt9Oo08468PPLHqj22kLeOu8vCAnerOgIaTNqNoz0MBMltriHEW/1w==
-----END CERTIFICATE-----
