Certificate:
    Data:
        Version: 3 (0x2)
        Serial Number:
            d0:a4:69:41:4e:c5:c5:bb:12:81:fc:00:5b:ac:fe:72
        Signature Algorithm: sha256WithRSAEncryption
        Issuer: C=ES, O=teleco, CN=Root CA
        Validity
            Not Before: Jun 30 16:43:14 2024 GMT
            Not After : Jun 28 16:43:14 2034 GMT
        Subject: C=ES, O=teleco, CN=serverTLS
        Subject Public Key Info:
            Public Key Algorithm: rsaEncryption
                Public-Key: (2048 bit)
                Modulus:
                    00:aa:18:72:3b:db:b2:5a:a3:d8:fb:4f:ae:1e:bc:
                    44:e3:b8:17:7a:a0:60:53:d2:2d:1e:d1:b1:89:74:
                    00:34:6b:1a:67:d1:89:1f:9d:24:de:50:12:53:e7:
                    23:5f:6a:c3:e8:fa:d7:49:8b:27:2d:fc:d0:10:00:
                    8a:17:3c:c4:45:4e:be:5a:00:c4:14:86:1f:3a:17:
                    72:86:4c:52:ac:b5:96:1c:80:63:87:72:3b:1b:e1:
                    f1:2d:23:24:de:e7:5f:d0:c0:6c:fe:aa:42:29:e6:
                    aa:6d:03:ac:ae:11:58:46:54:ef:11:a8:11:19:7c:
                    8c:22:dd:38:01:1d:31:9d:f1:ca:46:cb:af:df:bd:
                    06:c6:10:d9:f3:ee:38:3f:e3:a6:28:aa:37:53:80:
                    fe:82:51:73:76:82:a8:71:6e:a3:ae:4d:51:47:85:
                    a5:b5:12:45:af:de:e8:0c:da:09:86:c2:ca:5f:78:
                    e6:84:b2:c9:39:c3:56:fc:29:2b:3a:50:20:e8:2c:
                    32:57:06:d4:9e:f6:12:3d:b0:14:91:40:1a:e7:5b:
                    4e:36:87:12:54:49:8d:3b:6a:08:61:32:4e:30:d0:
                    4a:cf:81:30:b5:fc:eb:6f:02:a9:73:7d:8f:31:49:
                    d6:0d:ba:7f:fe:0b:ec:4d:52:ab:61:4b:07:c1:12:
                    4b:d7
                Exponent: 65537 (0x10001)
        X509v3 extensions:
            Authority Information Access: 
                OCSP - URI:http://127.0.0.1:9080
            X509v3 Authority Key Identifier: 
                E2:20:C9:E0:9C:74:0C:A1:94:6C:96:E3:77:17:76:FB:D2:E9:9D:25
            X509v3 Basic Constraints: critical
                CA:FALSE
            X509v3 CRL Distribution Points: 
                Full Name:
                  URI:http://root-ca.teleco.uvigo/root-ca.crl
            X509v3 Extended Key Usage: 
                TLS Web Client Authentication, TLS Web Server Authentication
            X509v3 Key Usage: critical
                Digital Signature, Key Encipherment
            X509v3 Subject Key Identifier: 
                6C:61:82:9A:E3:84:58:D4:A1:BA:10:EA:69:0C:DB:27:14:99:27:14
    Signature Algorithm: sha256WithRSAEncryption
    Signature Value:
        35:a2:17:9e:63:ce:3c:92:16:8a:5c:f9:41:73:1a:7c:a0:a1:
        0d:3c:2b:7d:9d:80:ef:4a:1d:ef:d6:60:2f:30:bf:0f:e6:3c:
        9b:e2:1b:23:38:27:7f:34:7f:44:fe:fe:04:44:10:c4:4a:33:
        eb:14:99:9b:81:ec:ae:f2:8a:7d:c2:08:41:7a:64:6b:5a:10:
        89:00:be:d4:eb:c0:3d:4d:50:0e:b6:2a:80:f8:4a:34:d6:2b:
        f2:82:c6:f7:af:87:80:1c:f7:66:6e:99:66:61:92:f3:6f:d3:
        5b:66:fb:6a:fc:6f:3b:04:a1:33:e2:b3:c0:e7:7e:b6:aa:20:
        50:6f:0b:99:5e:b8:02:9f:73:cc:d1:79:73:91:82:0e:c8:d4:
        8c:07:6b:d5:da:13:4a:c1:6d:9e:66:8a:c7:e0:02:95:7c:6d:
        ed:06:1c:b0:29:02:b8:fd:3e:4d:07:06:86:1b:95:24:70:d3:
        12:8e:45:0b:5d:7e:15:e9:65:55:46:66:d4:10:ce:ab:d9:ba:
        4d:fa:5c:02:25:17:56:3f:7c:1d:8f:5a:6e:63:8e:52:1a:74:
        07:89:7c:a2:00:cb:ca:ef:8e:e3:9c:e1:89:3b:6b:1a:02:49:
        68:05:d0:d0:52:1d:43:c7:9a:47:52:4e:4d:12:1c:69:b7:41:
        02:aa:1d:73:dd:e2:f7:a2:c1:36:1e:a7:12:b2:b5:c1:33:39:
        3a:18:ca:ca:65:c7:ed:c2:b7:ab:b5:af:fe:25:00:6b:be:4a:
        5b:5d:6b:1e:0a:56:c9:54:d5:93:6d:69:ac:e0:bf:c2:3c:fe:
        be:8d:10:86:21:7e:c3:cf:a7:11:9e:d3:97:4c:52:93:c3:fa:
        a6:28:49:01:dc:31:57:4e:f7:f1:1d:33:b1:70:63:dd:9e:56:
        3d:66:5e:8a:fb:d8:07:93:87:09:2b:9b:40:f5:4b:06:98:d2:
        c3:07:36:e6:e0:e0:9c:48:44:d2:ff:2c:bd:34:b3:c2:01:cf:
        b8:29:39:33:6c:17:fc:e2:b3:c0:af:2b:a6:2e:af:d6:5d:77:
        81:47:86:17:7b:b0:09:a7:ae:dd:13:1c:ed:65:8b:8b:95:bb:
        2b:a5:ae:f8:23:8d:df:d8:f3:25:b0:ff:55:cc:df:21:38:0d:
        74:50:db:03:99:df:81:fb:0f:6b:60:32:52:00:6b:bd:c5:15:
        c0:fc:66:21:20:d4:86:ea:9e:70:5f:04:07:99:20:23:3e:e1:
        d6:de:cd:df:b2:b1:0c:91:af:70:80:59:c9:7e:23:93:e6:b1:
        cf:7d:48:af:3e:9a:61:6c:54:f1:de:7c:be:7c:c3:1d:da:d7:
        a2:64:d0:ef:7c:10:f2:fa
-----BEGIN CERTIFICATE-----
MIIE2zCCAsOgAwIBAgIRANCkaUFOxcW7EoH8AFus/nIwDQYJKoZIhvcNAQELBQAw
MDELMAkGA1UEBhMCRVMxDzANBgNVBAoMBnRlbGVjbzEQMA4GA1UEAwwHUm9vdCBD
QTAeFw0yNDA2MzAxNjQzMTRaFw0zNDA2MjgxNjQzMTRaMDIxCzAJBgNVBAYTAkVT
MQ8wDQYDVQQKDAZ0ZWxlY28xEjAQBgNVBAMMCXNlcnZlclRMUzCCASIwDQYJKoZI
hvcNAQEBBQADggEPADCCAQoCggEBAKoYcjvbslqj2PtPrh68ROO4F3qgYFPSLR7R
sYl0ADRrGmfRiR+dJN5QElPnI19qw+j610mLJy380BAAihc8xEVOvloAxBSGHzoX
coZMUqy1lhyAY4dyOxvh8S0jJN7nX9DAbP6qQinmqm0DrK4RWEZU7xGoERl8jCLd
OAEdMZ3xykbLr9+9BsYQ2fPuOD/jpiiqN1OA/oJRc3aCqHFuo65NUUeFpbUSRa/e
6AzaCYbCyl945oSyyTnDVvwpKzpQIOgsMlcG1J72Ej2wFJFAGudbTjaHElRJjTtq
CGEyTjDQSs+BMLX8628CqXN9jzFJ1g26f/4L7E1Sq2FLB8ESS9cCAwEAAaOB7TCB
6jAxBggrBgEFBQcBAQQlMCMwIQYIKwYBBQUHMAGGFWh0dHA6Ly8xMjcuMC4wLjE6
OTA4MDAfBgNVHSMEGDAWgBTiIMngnHQMoZRsluN3F3b70umdJTAMBgNVHRMBAf8E
AjAAMDgGA1UdHwQxMC8wLaAroCmGJ2h0dHA6Ly9yb290LWNhLnRlbGVjby51dmln
by9yb290LWNhLmNybDAdBgNVHSUEFjAUBggrBgEFBQcDAgYIKwYBBQUHAwEwDgYD
VR0PAQH/BAQDAgWgMB0GA1UdDgQWBBRsYYKa44RY1KG6EOppDNsnFJknFDANBgkq
hkiG9w0BAQsFAAOCAgEANaIXnmPOPJIWilz5QXMafKChDTwrfZ2A70od79ZgLzC/
D+Y8m+IbIzgnfzR/RP7+BEQQxEoz6xSZm4HsrvKKfcIIQXpka1oQiQC+1OvAPU1Q
DrYqgPhKNNYr8oLG96+HgBz3Zm6ZZmGS82/TW2b7avxvOwShM+KzwOd+tqogUG8L
mV64Ap9zzNF5c5GCDsjUjAdr1doTSsFtnmaKx+AClXxt7QYcsCkCuP0+TQcGhhuV
JHDTEo5FC11+FellVUZm1BDOq9m6TfpcAiUXVj98HY9abmOOUhp0B4l8ogDLyu+O
45zhiTtrGgJJaAXQ0FIdQ8eaR1JOTRIcabdBAqodc93i96LBNh6nErK1wTM5OhjK
ymXH7cK3q7Wv/iUAa75KW11rHgpWyVTVk21prOC/wjz+vo0QhiF+w8+nEZ7Tl0xS
k8P6pihJAdwxV0738R0zsXBj3Z5WPWZeivvYB5OHCSubQPVLBpjSwwc25uDgnEhE
0v8svTSzwgHPuCk5M2wX/OKzwK8rpi6v1l13gUeGF3uwCaeu3RMc7WWLi5W7K6Wu
+CON39jzJbD/VczfITgNdFDbA5nfgfsPa2AyUgBrvcUVwPxmISDUhuqecF8EB5kg
Iz7h1t7N37KxDJGvcIBZyX4jk+axz31Irz6aYWxU8d58vnzDHdrXomTQ73wQ8vo=
-----END CERTIFICATE-----
