Certificate:
    Data:
        Version: 3 (0x2)
        Serial Number:
            d0:a4:69:41:4e:c5:c5:bb:12:81:fc:00:5b:ac:fe:72
        Signature Algorithm: sha256WithRSAEncryption
        Issuer: C=ES, O=teleco, CN=Root CA
        Validity
            Not Before: Jun 30 18:29:13 2024 GMT
            Not After : Jun 28 18:29:13 2034 GMT
        Subject: C=ES, O=teleco, CN=Sub CA Server
        Subject Public Key Info:
            Public Key Algorithm: rsaEncryption
                Public-Key: (4096 bit)
                Modulus:
                    00:fa:1a:7e:56:cc:71:57:db:3b:de:60:dd:91:6c:
                    1e:00:cf:54:b6:c2:1a:15:df:c7:f1:b7:81:dd:92:
                    88:e2:d6:3a:b7:29:21:7f:12:7b:5b:6f:39:4e:a7:
                    74:27:c9:12:2a:b6:7a:97:18:09:66:b5:34:9b:6f:
                    03:d5:ca:ac:4a:00:78:a7:63:b7:f9:07:5e:92:38:
                    9e:66:4b:95:71:b9:e5:c8:78:f7:72:45:d2:96:b6:
                    47:bc:5a:86:7c:c2:6c:09:7c:37:5c:e1:c3:91:69:
                    fe:1a:d3:2d:fc:f2:e4:c6:3e:ac:82:d1:e2:d2:63:
                    fd:e3:2a:1c:be:5c:72:d5:96:49:e4:3c:4f:83:e3:
                    53:26:48:04:b8:14:4c:42:15:a7:fa:f4:85:49:fc:
                    76:47:cc:ce:b6:1e:1c:17:3f:35:e6:7f:c5:18:aa:
                    45:66:b0:43:1e:ab:fa:74:1a:f3:08:c0:f6:57:5d:
                    d3:6b:e9:9c:f6:4a:2a:db:62:22:08:5d:4c:21:d0:
                    7f:ab:64:1f:60:bb:4e:2a:0e:a7:d5:e2:e0:c1:d3:
                    76:66:a6:68:6c:9a:f0:10:de:9f:0f:ce:8d:32:92:
                    fb:91:83:d6:66:eb:3a:43:4d:d6:b0:84:0d:6c:7f:
                    e6:e1:fa:e4:0a:40:36:c5:ba:58:dd:d8:4f:dd:6f:
                    99:fb:0b:89:73:0b:3a:a1:ac:b0:fc:87:f2:95:55:
                    18:0d:d9:bf:43:b7:15:25:1d:a8:b5:82:86:ee:69:
                    69:69:c4:35:66:4f:57:de:00:6b:2e:8f:95:a9:e3:
                    cb:ea:5f:7e:ab:a6:39:05:22:6a:7c:6a:35:15:df:
                    98:e8:2b:62:d9:61:f7:26:9c:3c:44:8e:1a:4b:f0:
                    be:c1:d8:3f:81:1a:d6:3a:0c:e6:28:a1:ab:f4:3a:
                    59:34:d2:1c:00:f1:c6:95:0d:f9:65:80:d8:76:59:
                    63:ba:59:17:9a:b5:a3:81:64:fd:20:b6:7b:72:c3:
                    05:25:13:c9:67:72:f8:92:d6:38:94:bd:c4:1e:9a:
                    ec:23:6c:28:45:17:68:75:02:5e:db:1a:6b:96:4c:
                    31:a5:bd:a3:17:d5:76:be:a4:a2:88:dc:4c:70:22:
                    da:f6:16:c5:3c:b9:9e:c8:5c:d9:b5:31:06:7e:cc:
                    de:20:ac:70:69:fa:dc:86:c5:8e:18:3f:54:e4:73:
                    67:0d:c1:11:2c:a6:8c:ef:fe:56:48:19:69:3c:fe:
                    ba:8a:19:6b:b0:79:ed:09:d2:97:c3:1f:26:4d:45:
                    89:0e:b9:e2:68:39:52:d9:08:3d:c4:25:bb:40:98:
                    f8:e7:3b:fe:1f:72:03:60:ce:84:73:98:d3:01:7c:
                    4f:1d:a5
                Exponent: 65537 (0x10001)
        X509v3 extensions:
            Authority Information Access: 
                CA Issuers - URI:http://root-ca.teleco.uvigo/root-ca.crt
                OCSP - URI:http://ocsp.root-ca.teleco.uvigo:9080
            X509v3 Authority Key Identifier: 
                E2:20:C9:E0:9C:74:0C:A1:94:6C:96:E3:77:17:76:FB:D2:E9:9D:25
            X509v3 Basic Constraints: critical
                CA:TRUE, pathlen:0
            X509v3 CRL Distribution Points: 
                Full Name:
                  URI:http://root-ca.teleco.uvigo/root-ca.crl
            X509v3 Extended Key Usage: 
                TLS Web Client Authentication, TLS Web Server Authentication
            X509v3 Key Usage: critical
                Certificate Sign, CRL Sign
            X509v3 Name Constraints: 
                Permitted:
                  DNS:example.com
                  DNS:example.org
                Excluded:
                  IP:0.0.0.0/0.0.0.0
                  IP:0:0:0:0:0:0:0:0/0:0:0:0:0:0:0:0
            X509v3 Subject Key Identifier: 
                B1:72:5A:B7:CC:F3:7C:7E:26:CF:4F:35:DF:A7:6C:09:2C:7C:19:91
    Signature Algorithm: sha256WithRSAEncryption
    Signature Value:
        37:b9:ea:0e:3b:91:9a:25:a9:42:3a:3f:1f:f5:77:81:a1:0a:
        1f:e6:d5:0b:98:ff:11:de:a7:e9:e3:6f:9b:75:c7:20:ab:c9:
        14:72:09:6c:0b:77:ff:c7:d8:c7:f9:96:60:42:5d:3c:b1:93:
        c6:d8:ef:5e:79:b7:af:2c:83:32:5c:f6:97:64:c9:23:c3:23:
        59:86:45:e3:d9:51:45:41:41:f6:68:cd:33:2f:68:d4:34:e6:
        cb:ad:04:00:05:3c:8d:97:a1:7b:7d:fb:3b:22:1b:8f:07:95:
        6e:55:56:83:c7:b0:27:3f:3c:c4:d2:8a:02:69:00:ac:83:b7:
        0f:08:6d:0f:ec:9c:78:34:45:8c:5c:87:97:49:35:40:3d:c4:
        a3:47:f6:fa:bc:0b:d7:49:eb:72:a2:af:d0:71:1c:d7:bc:72:
        a1:ce:32:ce:87:f8:99:d2:6d:f6:a2:d2:58:27:4d:56:67:c8:
        7a:cb:29:7b:a8:45:78:f2:c7:8c:a9:b9:4f:b6:e2:e2:17:11:
        e4:90:7f:31:9e:67:05:8d:4b:3f:89:c9:53:59:86:2f:d3:ff:
        05:77:4d:13:6e:6c:2f:35:e2:52:1c:93:14:37:25:6e:5a:ec:
        04:bc:4f:5f:53:3d:eb:f4:d7:d5:72:8b:33:3a:2d:a5:2c:00:
        c5:eb:e1:4d:9a:0a:85:a8:35:2c:9e:6f:16:32:bb:4b:52:71:
        86:ac:d7:3d:e4:da:2b:92:9e:b9:cc:71:b0:ce:d1:1d:04:7f:
        e0:01:94:69:a7:11:6c:2d:ef:ad:e5:6d:77:b6:af:21:3a:ab:
        da:59:e3:26:22:60:69:c2:79:82:7e:6a:03:7e:86:6f:bc:4c:
        32:c6:ba:9d:04:c7:17:e2:95:3a:be:a4:1a:29:af:ae:c1:7c:
        07:ce:bf:5c:32:c8:de:53:3b:76:e7:79:b3:07:cc:92:47:62:
        60:ff:07:e9:6f:ba:61:ca:ae:31:d0:42:4a:97:88:79:29:60:
        85:d0:71:1e:d8:f4:41:62:40:2c:93:c7:f9:72:89:03:51:28:
        2c:c7:87:54:ec:ad:21:81:d3:3a:90:20:77:82:a2:9f:84:98:
        81:b1:01:95:10:e1:86:86:f7:b8:9b:1f:04:43:60:6e:15:60:
        87:0e:77:54:a5:66:4a:73:d1:a3:4a:0d:7b:0e:40:95:73:cd:
        a4:53:c0:bb:6b:31:7f:0c:0b:5a:30:53:2f:a6:15:2b:78:67:
        f5:1e:f1:06:08:54:8d:da:af:e0:84:d0:b9:6f:64:18:a3:ab:
        d9:9b:af:5f:84:fa:4a:09:65:d7:ea:21:30:bb:ad:79:90:ce:
        a2:f7:3b:27:5a:48:ce:92
-----BEGIN CERTIFICATE-----
MIIGiTCCBHGgAwIBAgIRANCkaUFOxcW7EoH8AFus/nIwDQYJKoZIhvcNAQELBQAw
MDELMAkGA1UEBhMCRVMxDzANBgNVBAoMBnRlbGVjbzEQMA4GA1UEAwwHUm9vdCBD
QTAeFw0yNDA2MzAxODI5MTNaFw0zNDA2MjgxODI5MTNaMDYxCzAJBgNVBAYTAkVT
MQ8wDQYDVQQKDAZ0ZWxlY28xFjAUBgNVBAMMDVN1YiBDQSBTZXJ2ZXIwggIiMA0G
CSqGSIb3DQEBAQUAA4ICDwAwggIKAoICAQD6Gn5WzHFX2zveYN2RbB4Az1S2whoV
38fxt4Hdkoji1jq3KSF/EntbbzlOp3QnyRIqtnqXGAlmtTSbbwPVyqxKAHinY7f5
B16SOJ5mS5VxueXIePdyRdKWtke8WoZ8wmwJfDdc4cORaf4a0y388uTGPqyC0eLS
Y/3jKhy+XHLVlknkPE+D41MmSAS4FExCFaf69IVJ/HZHzM62HhwXPzXmf8UYqkVm
sEMeq/p0GvMIwPZXXdNr6Zz2SirbYiIIXUwh0H+rZB9gu04qDqfV4uDB03Zmpmhs
mvAQ3p8Pzo0ykvuRg9Zm6zpDTdawhA1sf+bh+uQKQDbFuljd2E/db5n7C4lzCzqh
rLD8h/KVVRgN2b9DtxUlHai1gobuaWlpxDVmT1feAGsuj5Wp48vqX36rpjkFImp8
ajUV35joK2LZYfcmnDxEjhpL8L7B2D+BGtY6DOYooav0Olk00hwA8caVDfllgNh2
WWO6WReataOBZP0gtntywwUlE8lncviS1jiUvcQemuwjbChFF2h1Al7bGmuWTDGl
vaMX1Xa+pKKI3ExwItr2FsU8uZ7IXNm1MQZ+zN4grHBp+tyGxY4YP1Tkc2cNwREs
pozv/lZIGWk8/rqKGWuwee0J0pfDHyZNRYkOueJoOVLZCD3EJbtAmPjnO/4fcgNg
zoRzmNMBfE8dpQIDAQABo4IBljCCAZIwdgYIKwYBBQUHAQEEajBoMDMGCCsGAQUF
BzAChidodHRwOi8vcm9vdC1jYS50ZWxlY28udXZpZ28vcm9vdC1jYS5jcnQwMQYI
KwYBBQUHMAGGJWh0dHA6Ly9vY3NwLnJvb3QtY2EudGVsZWNvLnV2aWdvOjkwODAw
HwYDVR0jBBgwFoAU4iDJ4Jx0DKGUbJbjdxd2+9LpnSUwEgYDVR0TAQH/BAgwBgEB
/wIBADA4BgNVHR8EMTAvMC2gK6AphidodHRwOi8vcm9vdC1jYS50ZWxlY28udXZp
Z28vcm9vdC1jYS5jcmwwHQYDVR0lBBYwFAYIKwYBBQUHAwIGCCsGAQUFBwMBMA4G
A1UdDwEB/wQEAwIBBjBbBgNVHR4EVDBSoB4wDYILZXhhbXBsZS5jb20wDYILZXhh
bXBsZS5vcmehMDAKhwgAAAAAAAAAADAihyAAAAAAAAAAAAAAAAAAAAAAAAAAAAAA
AAAAAAAAAAAAADAdBgNVHQ4EFgQUsXJat8zzfH4mz08136dsCSx8GZEwDQYJKoZI
hvcNAQELBQADggIBADe56g47kZolqUI6Px/1d4GhCh/m1QuY/xHep+njb5t1xyCr
yRRyCWwLd//H2Mf5lmBCXTyxk8bY7155t68sgzJc9pdkySPDI1mGRePZUUVBQfZo
zTMvaNQ05sutBAAFPI2XoXt9+zsiG48HlW5VVoPHsCc/PMTSigJpAKyDtw8IbQ/s
nHg0RYxch5dJNUA9xKNH9vq8C9dJ63Kir9BxHNe8cqHOMs6H+JnSbfai0lgnTVZn
yHrLKXuoRXjyx4ypuU+24uIXEeSQfzGeZwWNSz+JyVNZhi/T/wV3TRNubC814lIc
kxQ3JW5a7AS8T19TPev019VyizM6LaUsAMXr4U2aCoWoNSyebxYyu0tScYas1z3k
2iuSnrnMcbDO0R0Ef+ABlGmnEWwt763lbXe2ryE6q9pZ4yYiYGnCeYJ+agN+hm+8
TDLGup0ExxfilTq+pBopr67BfAfOv1wyyN5TO3bnebMHzJJHYmD/B+lvumHKrjHQ
QkqXiHkpYIXQcR7Y9EFiQCyTx/lyiQNRKCzHh1TsrSGB0zqQIHeCop+EmIGxAZUQ
4YaG97ibHwRDYG4VYIcOd1SlZkpz0aNKDXsOQJVzzaRTwLtrMX8MC1owUy+mFSt4
Z/Ue8QYIVI3ar+CE0LlvZBijq9mbr1+E+koJZdfqITC7rXmQzqL3OydaSM6S
-----END CERTIFICATE-----
