Certificate:
    Data:
        Version: 3 (0x2)
        Serial Number:
            6a:88:2d:52:27:ef:9d:16:6b:af:95:71:1d:6d:e2:3b
        Signature Algorithm: sha256WithRSAEncryption
        Issuer: C=ES, O=teleco, CN=Root CA
        Validity
            Not Before: Jun 28 17:39:24 2024 GMT
            Not After : Jun 26 17:39:24 2034 GMT
        Subject: C=ES, O=teleco, CN=Root CA
        Subject Public Key Info:
            Public Key Algorithm: rsaEncryption
                Public-Key: (4096 bit)
                Modulus:
                    00:ab:62:e5:ee:3e:ff:d9:3c:ad:e9:95:02:68:a6:
                    1d:fa:f0:ad:12:d3:b1:fa:e7:6b:45:f4:36:f6:50:
                    f2:f1:5e:43:0b:63:9c:65:94:de:8e:d2:72:a9:21:
                    13:45:f8:ed:96:24:b1:0c:1c:3c:86:4f:c9:8c:0d:
                    bd:9a:0b:ff:19:b2:96:7d:8d:a5:d4:fb:20:44:43:
                    0e:2f:c7:35:66:36:ab:06:31:b6:e3:c3:fb:6d:2b:
                    39:16:52:18:49:dc:90:a5:0b:9a:60:33:a9:55:67:
                    d2:be:9d:d7:7f:9c:c4:8c:b0:94:40:78:e1:6b:20:
                    fb:07:84:a6:d6:fe:8c:9e:ce:f9:ea:68:d2:95:6d:
                    0f:bc:73:f6:74:33:df:b3:d3:5d:70:94:ab:19:96:
                    73:4d:4c:61:8e:5a:a7:1a:e5:88:52:e8:62:55:b7:
                    83:d1:2b:b0:ed:47:c1:50:85:5e:ed:20:e7:0d:2c:
                    f9:d8:cb:f1:1a:48:d5:4e:2b:b3:76:6d:94:c9:ae:
                    8b:a3:b8:07:f5:2b:ec:d2:66:5d:9b:3c:6c:05:39:
                    35:1a:9c:58:98:0d:dc:64:2d:c1:34:20:24:b7:05:
                    65:f7:4b:48:36:4a:81:91:4d:60:c3:49:37:5f:31:
                    cd:d7:49:b9:17:24:5b:3e:7b:62:c7:68:50:e7:53:
                    f0:38:69:44:16:d7:e7:a2:77:35:c6:22:e0:ce:ce:
                    94:c4:fe:f6:62:79:3d:b5:9d:f2:c9:81:76:33:c1:
                    de:bd:07:2a:48:e7:97:f4:27:be:70:bf:15:48:de:
                    9c:0d:f2:24:c6:45:72:7f:f8:2e:1c:eb:58:a6:c3:
                    8c:75:f0:dc:fd:3c:7b:cf:c5:2a:f0:da:f4:61:fe:
                    9f:64:8b:7c:5c:0f:a6:1b:e6:c7:43:0b:c5:59:97:
                    ef:02:60:25:5e:f2:e8:b1:85:60:a9:dc:b0:63:83:
                    c1:ab:bd:70:11:5a:6a:96:ca:70:67:b8:ca:9b:21:
                    dc:3b:41:89:95:d1:0b:2e:07:5f:21:40:a7:55:8c:
                    00:9f:d4:64:06:3e:0e:1b:01:97:c9:28:35:1b:a5:
                    e9:63:98:b9:72:30:e6:be:ed:2a:2e:c9:42:1a:fa:
                    24:1b:18:93:33:d3:66:9b:0f:9d:9d:da:ce:73:b2:
                    43:25:2a:2c:2f:8a:1f:a4:5c:e1:98:05:3e:3f:27:
                    30:32:60:7f:7d:3b:79:bc:63:84:bc:26:09:fb:22:
                    eb:00:91:fe:95:8a:f1:c8:9d:e8:b3:64:19:bd:f8:
                    11:8e:3f:bf:f5:e9:bd:84:8c:b8:5a:c2:5e:da:34:
                    2e:44:84:2f:b8:ee:7d:cd:fd:cb:69:8e:f4:25:8a:
                    47:51:85
                Exponent: 65537 (0x10001)
        X509v3 extensions:
            X509v3 Basic Constraints: critical
                CA:TRUE
            X509v3 Key Usage: critical
                Certificate Sign, CRL Sign
            X509v3 Subject Key Identifier: 
                F8:DB:9E:DA:E8:20:2E:99:26:81:D7:F7:DB:46:18:5B:AB:D5:D0:A3
    Signature Algorithm: sha256WithRSAEncryption
    Signature Value:
        85:bc:1d:d6:eb:74:1c:5e:47:7f:62:b3:12:f1:72:10:ca:29:
        b2:91:1e:67:e3:7f:b0:d7:d7:a1:ec:d9:bb:e2:fa:23:5b:f5:
        cd:3c:a1:6d:2d:e5:ff:ed:de:05:87:a7:62:85:d1:e1:16:a0:
        34:4e:f5:03:4c:5a:39:61:fb:ba:51:0c:a2:0b:5b:f6:de:59:
        ac:a1:d4:1a:c9:37:b7:a5:c0:66:79:ba:b7:24:00:92:26:58:
        09:3e:d4:bc:b0:39:a1:e2:12:61:c3:e8:8e:b1:75:dd:48:70:
        b6:3f:74:6b:6d:dd:20:64:bf:1b:56:34:b1:bc:a4:96:16:63:
        bb:a9:6b:a8:e4:ad:98:a5:89:bd:a0:a4:eb:b9:98:ee:a9:13:
        0e:db:11:79:f1:54:8c:49:9a:5c:4a:43:f5:50:be:68:a9:10:
        20:ac:a1:b6:7e:78:f3:45:19:fc:6b:86:0c:1c:76:a2:ac:4a:
        c2:4a:77:ee:2e:ee:80:0a:fe:b0:5d:28:54:11:63:39:b8:84:
        b4:d4:66:22:9b:79:38:ab:62:b0:9d:20:3c:d8:95:6b:f0:6b:
        f3:0e:a4:3a:22:31:77:7f:32:97:ea:08:0a:d6:bc:17:31:df:
        0c:a1:4b:fc:c2:0f:7a:ba:22:9a:3a:9f:5f:35:3d:97:59:1d:
        3e:eb:40:53:65:04:59:53:76:0d:46:b6:05:90:3c:fd:dc:11:
        1a:a3:99:d1:0f:e3:ce:f3:a1:b5:14:fc:32:25:72:aa:bf:1c:
        78:0e:14:3d:01:35:af:e4:8e:1c:e1:1f:8f:a7:7e:e1:63:90:
        d5:ec:63:2d:19:d6:c1:10:49:44:63:5b:58:f5:6d:0f:68:d8:
        9b:e9:2f:c4:a6:7b:ba:74:70:b1:86:42:49:8e:92:5a:02:b1:
        30:d2:44:9f:eb:41:ae:28:60:98:45:72:2a:47:43:0d:f3:93:
        c6:6e:0f:5c:e9:a7:88:17:c3:20:98:1f:f0:a5:09:3f:0d:f9:
        c3:a0:fa:60:17:dd:5c:83:0e:de:20:43:d2:cc:6c:16:8f:5d:
        b6:fa:49:f5:3e:ba:c2:ac:73:31:7d:65:a1:39:e7:83:16:6d:
        69:d3:75:80:d7:24:95:9b:43:ec:46:c3:c8:17:08:a0:17:f3:
        67:f5:07:50:2c:41:24:55:b2:fa:f9:2f:d4:67:de:b6:80:dc:
        17:5d:36:07:b8:27:05:25:0a:2c:11:2e:93:8a:fc:08:40:64:
        91:a4:dd:55:49:bc:dc:72:0b:73:e1:71:fe:67:02:d6:c8:f5:
        f4:86:84:a0:5f:5f:77:ad:15:f7:b2:75:22:35:7d:9d:be:a9:
        6b:9a:cb:c5:18:ee:78:52
-----BEGIN CERTIFICATE-----
MIIFLDCCAxSgAwIBAgIQaogtUifvnRZrr5VxHW3iOzANBgkqhkiG9w0BAQsFADAw
MQswCQYDVQQGEwJFUzEPMA0GA1UECgwGdGVsZWNvMRAwDgYDVQQDDAdSb290IENB
MB4XDTI0MDYyODE3MzkyNFoXDTM0MDYyNjE3MzkyNFowMDELMAkGA1UEBhMCRVMx
DzANBgNVBAoMBnRlbGVjbzEQMA4GA1UEAwwHUm9vdCBDQTCCAiIwDQYJKoZIhvcN
AQEBBQADggIPADCCAgoCggIBAKti5e4+/9k8remVAmimHfrwrRLTsfrna0X0NvZQ
8vFeQwtjnGWU3o7ScqkhE0X47ZYksQwcPIZPyYwNvZoL/xmyln2NpdT7IERDDi/H
NWY2qwYxtuPD+20rORZSGEnckKULmmAzqVVn0r6d13+cxIywlEB44Wsg+weEptb+
jJ7O+epo0pVtD7xz9nQz37PTXXCUqxmWc01MYY5apxrliFLoYlW3g9ErsO1HwVCF
Xu0g5w0s+djL8RpI1U4rs3ZtlMmui6O4B/Ur7NJmXZs8bAU5NRqcWJgN3GQtwTQg
JLcFZfdLSDZKgZFNYMNJN18xzddJuRckWz57YsdoUOdT8DhpRBbX56J3NcYi4M7O
lMT+9mJ5PbWd8smBdjPB3r0HKkjnl/QnvnC/FUjenA3yJMZFcn/4LhzrWKbDjHXw
3P08e8/FKvDa9GH+n2SLfFwPphvmx0MLxVmX7wJgJV7y6LGFYKncsGODwau9cBFa
apbKcGe4ypsh3DtBiZXRCy4HXyFAp1WMAJ/UZAY+DhsBl8koNRul6WOYuXIw5r7t
Ki7JQhr6JBsYkzPTZpsPnZ3aznOyQyUqLC+KH6Rc4ZgFPj8nMDJgf307ebxjhLwm
Cfsi6wCR/pWK8cid6LNkGb34EY4/v/XpvYSMuFrCXto0LkSEL7jufc39y2mO9CWK
R1GFAgMBAAGjQjBAMA8GA1UdEwEB/wQFMAMBAf8wDgYDVR0PAQH/BAQDAgEGMB0G
A1UdDgQWBBT4257a6CAumSaB1/fbRhhbq9XQozANBgkqhkiG9w0BAQsFAAOCAgEA
hbwd1ut0HF5Hf2KzEvFyEMopspEeZ+N/sNfXoezZu+L6I1v1zTyhbS3l/+3eBYen
YoXR4RagNE71A0xaOWH7ulEMogtb9t5ZrKHUGsk3t6XAZnm6tyQAkiZYCT7UvLA5
oeISYcPojrF13Uhwtj90a23dIGS/G1Y0sbyklhZju6lrqOStmKWJvaCk67mY7qkT
DtsRefFUjEmaXEpD9VC+aKkQIKyhtn5480UZ/GuGDBx2oqxKwkp37i7ugAr+sF0o
VBFjObiEtNRmIpt5OKtisJ0gPNiVa/Br8w6kOiIxd38yl+oICta8FzHfDKFL/MIP
eroimjqfXzU9l1kdPutAU2UEWVN2DUa2BZA8/dwRGqOZ0Q/jzvOhtRT8MiVyqr8c
eA4UPQE1r+SOHOEfj6d+4WOQ1exjLRnWwRBJRGNbWPVtD2jYm+kvxKZ7unRwsYZC
SY6SWgKxMNJEn+tBrihgmEVyKkdDDfOTxm4PXOmniBfDIJgf8KUJPw35w6D6YBfd
XIMO3iBD0sxsFo9dtvpJ9T66wqxzMX1loTnngxZtadN1gNcklZtD7EbDyBcIoBfz
Z/UHUCxBJFWy+vkv1GfetoDcF102B7gnBSUKLBEuk4r8CEBkkaTdVUm83HILc+Fx
/mcC1sj19IaEoF9fd60V97J1IjV9nb6pa5rLxRjueFI=
-----END CERTIFICATE-----
