Certificate:
    Data:
        Version: 3 (0x2)
        Serial Number:
            6a:88:2d:52:27:ef:9d:16:6b:af:95:71:1d:6d:e2:3c
        Signature Algorithm: sha256WithRSAEncryption
        Issuer: C=ES, O=teleco, CN=Root CA
        Validity
            Not Before: Jun 28 17:43:40 2024 GMT
            Not After : Jun 26 17:43:40 2034 GMT
        Subject: C=ES, O=teleco, CN=serverTLS
        Subject Public Key Info:
            Public Key Algorithm: rsaEncryption
                Public-Key: (2048 bit)
                Modulus:
                    00:b5:2e:25:08:e6:88:17:8e:9f:8e:8a:72:5e:32:
                    5c:de:51:89:a0:a3:23:95:bb:ce:e9:17:38:e3:be:
                    3b:49:93:37:2e:e7:96:b5:47:7a:94:29:52:32:27:
                    4e:68:1a:f5:af:26:d8:09:55:48:df:13:4e:38:37:
                    48:63:c1:a0:d5:03:4e:12:2d:fb:da:f3:de:53:f9:
                    54:52:e3:72:71:96:3b:d3:f3:22:a8:78:50:fe:5a:
                    bd:a1:29:ff:60:60:af:78:c9:2c:e1:aa:dc:f7:10:
                    b3:ef:e1:25:5e:93:e6:8c:91:8d:0f:6c:af:5d:02:
                    85:e1:04:45:26:d8:e8:19:d2:5a:6f:c6:a6:19:1f:
                    55:93:1e:5e:2e:49:9d:bb:38:1d:2e:ef:26:85:7d:
                    66:04:72:c4:6f:8d:d3:4a:b6:81:8c:72:14:b7:72:
                    b1:ec:5d:65:3e:d3:49:de:73:e1:66:29:3e:85:0b:
                    70:03:97:8d:3e:17:01:b4:03:ae:b1:89:6d:79:eb:
                    8c:2e:9b:96:94:c0:c0:0f:a2:cb:c7:73:bf:1a:79:
                    98:d0:08:b4:d0:25:56:bc:9c:3b:6d:d2:12:63:2e:
                    53:6e:f7:c0:ac:92:da:78:55:98:e7:b2:30:4a:c8:
                    29:20:19:f4:53:71:67:2a:80:c5:78:16:88:71:d0:
                    ee:f3
                Exponent: 65537 (0x10001)
        X509v3 extensions:
            Authority Information Access: 
                CA Issuers - URI:http://root-ca.teleco.uvigo/root-ca.crt
                OCSP - URI:http://ocsp.root-ca.teleco.uvigo:9080
            X509v3 Authority Key Identifier: 
                F8:DB:9E:DA:E8:20:2E:99:26:81:D7:F7:DB:46:18:5B:AB:D5:D0:A3
            X509v3 Basic Constraints: critical
                CA:FALSE
            X509v3 CRL Distribution Points: 
                Full Name:
                  URI:http://root-ca.teleco.uvigo/root-ca.crl
            X509v3 Extended Key Usage: 
                TLS Web Client Authentication, TLS Web Server Authentication
            X509v3 Key Usage: critical
                Digital Signature, Key Encipherment
            X509v3 Subject Key Identifier: 
                F3:51:52:98:18:E8:A3:B2:35:98:08:10:23:A2:71:1B:05:C1:DD:4B
    Signature Algorithm: sha256WithRSAEncryption
    Signature Value:
        94:1e:96:6b:28:84:7b:8d:0f:32:53:01:00:93:27:89:f9:9a:
        93:dd:d6:30:bf:20:12:37:e8:44:8c:85:3c:42:e0:10:23:56:
        73:10:2a:2a:35:d0:95:f4:97:45:5c:97:ce:ed:db:53:ad:16:
        e3:5e:c3:f0:dc:8d:67:03:4a:f5:b9:b1:6f:1c:a8:37:f3:eb:
        b9:11:ea:e9:48:ff:81:ad:56:48:39:b2:91:a3:16:22:f6:73:
        83:b9:14:43:5f:aa:85:0e:2b:3f:28:6d:ec:8c:fa:7b:5d:28:
        f2:8d:1e:68:e2:cb:aa:89:e2:50:fc:0f:95:3d:53:ea:96:91:
        b1:b3:d0:a5:99:2a:9b:55:13:a6:0c:4f:eb:dc:59:30:c7:04:
        8e:80:9c:c0:be:08:c0:81:27:0f:94:f0:50:27:92:5b:87:27:
        d6:b5:c1:17:40:cc:e7:e3:16:07:5b:45:bd:95:be:53:85:9f:
        c6:f3:dd:d8:6b:ab:84:13:ae:92:e9:2b:68:f3:24:e5:2a:91:
        76:b0:ae:66:55:67:72:56:40:57:ca:91:d6:7c:88:4f:be:51:
        25:f7:7a:b2:04:03:67:c4:2f:98:cc:0b:ff:b0:ff:e2:64:7e:
        94:75:0d:8c:16:d9:d5:3d:92:8e:a4:bb:9c:5e:f7:d7:db:03:
        c4:7e:04:64:93:9b:2a:78:8d:b6:45:a9:bf:04:95:08:79:8e:
        15:b7:48:03:03:ea:69:7e:75:6e:b6:ac:b3:09:a2:b4:dd:10:
        ee:aa:41:82:b5:37:40:1d:34:a9:dd:b1:4e:8f:55:3c:d2:5c:
        4b:ba:d9:1f:5d:76:de:29:53:47:b1:37:46:07:ac:a6:77:d2:
        06:ca:15:1c:d2:eb:8f:82:cf:71:bd:37:49:a1:2f:3c:94:b4:
        08:e9:d6:3b:38:32:96:84:c6:e3:ef:68:c9:47:42:2e:a2:28:
        13:cc:2e:fd:8d:17:b1:f7:ba:10:42:11:5f:27:55:a4:6a:28:
        c7:fa:a2:08:11:f7:69:6e:9b:91:52:ac:d5:30:19:58:af:b0:
        d9:db:4a:a7:fd:a0:6c:7b:08:73:73:dc:e3:09:64:a9:7c:61:
        b8:1c:9e:69:a3:a8:53:85:9d:b4:a5:bc:54:04:f8:53:38:db:
        b5:26:b5:47:f2:77:2b:58:14:1c:c0:ed:52:b7:e1:78:5c:87:
        63:af:22:e5:f9:ee:42:73:d2:ab:c6:ea:66:0d:55:12:34:c1:
        7d:41:b3:a4:17:e9:b8:8a:bc:57:6b:4e:a3:90:9d:7c:e7:e4:
        d5:4c:02:a2:0a:dd:eb:ab:3f:09:26:eb:48:a5:a5:1d:32:9b:
        87:98:cb:73:d7:c5:a8:84
-----BEGIN CERTIFICATE-----
MIIFITCCAwmgAwIBAgIQaogtUifvnRZrr5VxHW3iPDANBgkqhkiG9w0BAQsFADAw
MQswCQYDVQQGEwJFUzEPMA0GA1UECgwGdGVsZWNvMRAwDgYDVQQDDAdSb290IENB
MB4XDTI0MDYyODE3NDM0MFoXDTM0MDYyNjE3NDM0MFowMjELMAkGA1UEBhMCRVMx
DzANBgNVBAoMBnRlbGVjbzESMBAGA1UEAwwJc2VydmVyVExTMIIBIjANBgkqhkiG
9w0BAQEFAAOCAQ8AMIIBCgKCAQEAtS4lCOaIF46fjopyXjJc3lGJoKMjlbvO6Rc4
4747SZM3LueWtUd6lClSMidOaBr1rybYCVVI3xNOODdIY8Gg1QNOEi372vPeU/lU
UuNycZY70/MiqHhQ/lq9oSn/YGCveMks4arc9xCz7+ElXpPmjJGND2yvXQKF4QRF
JtjoGdJab8amGR9Vkx5eLkmduzgdLu8mhX1mBHLEb43TSraBjHIUt3Kx7F1lPtNJ
3nPhZik+hQtwA5eNPhcBtAOusYlteeuMLpuWlMDAD6LLx3O/GnmY0Ai00CVWvJw7
bdISYy5TbvfArJLaeFWY57IwSsgpIBn0U3FnKoDFeBaIcdDu8wIDAQABo4IBMzCC
AS8wdgYIKwYBBQUHAQEEajBoMDMGCCsGAQUFBzAChidodHRwOi8vcm9vdC1jYS50
ZWxlY28udXZpZ28vcm9vdC1jYS5jcnQwMQYIKwYBBQUHMAGGJWh0dHA6Ly9vY3Nw
LnJvb3QtY2EudGVsZWNvLnV2aWdvOjkwODAwHwYDVR0jBBgwFoAU+Nue2uggLpkm
gdf320YYW6vV0KMwDAYDVR0TAQH/BAIwADA4BgNVHR8EMTAvMC2gK6AphidodHRw
Oi8vcm9vdC1jYS50ZWxlY28udXZpZ28vcm9vdC1jYS5jcmwwHQYDVR0lBBYwFAYI
KwYBBQUHAwIGCCsGAQUFBwMBMA4GA1UdDwEB/wQEAwIFoDAdBgNVHQ4EFgQU81FS
mBjoo7I1mAgQI6JxGwXB3UswDQYJKoZIhvcNAQELBQADggIBAJQelmsohHuNDzJT
AQCTJ4n5mpPd1jC/IBI36ESMhTxC4BAjVnMQKio10JX0l0Vcl87t21OtFuNew/Dc
jWcDSvW5sW8cqDfz67kR6ulI/4GtVkg5spGjFiL2c4O5FENfqoUOKz8obeyM+ntd
KPKNHmjiy6qJ4lD8D5U9U+qWkbGz0KWZKptVE6YMT+vcWTDHBI6AnMC+CMCBJw+U
8FAnkluHJ9a1wRdAzOfjFgdbRb2VvlOFn8bz3dhrq4QTrpLpK2jzJOUqkXawrmZV
Z3JWQFfKkdZ8iE++USX3erIEA2fEL5jMC/+w/+JkfpR1DYwW2dU9ko6ku5xe99fb
A8R+BGSTmyp4jbZFqb8ElQh5jhW3SAMD6ml+dW62rLMJorTdEO6qQYK1N0AdNKnd
sU6PVTzSXEu62R9ddt4pU0exN0YHrKZ30gbKFRzS64+Cz3G9N0mhLzyUtAjp1js4
MpaExuPvaMlHQi6iKBPMLv2NF7H3uhBCEV8nVaRqKMf6oggR92lum5FSrNUwGViv
sNnbSqf9oGx7CHNz3OMJZKl8YbgcnmmjqFOFnbSlvFQE+FM427UmtUfydytYFBzA
7VK34Xhch2OvIuX57kJz0qvG6mYNVRI0wX1Bs6QX6biKvFdrTqOQnXzn5NVMAqIK
3eurPwkm60ilpR0ym4eYy3PXxaiE
-----END CERTIFICATE-----
