Certificate:
    Data:
        Version: 3 (0x2)
        Serial Number:
            6a:88:2d:52:27:ef:9d:16:6b:af:95:71:1d:6d:e2:3f
        Signature Algorithm: sha256WithRSAEncryption
        Issuer: C=ES, O=teleco, CN=Root CA
        Validity
            Not Before: Jun 28 18:00:28 2024 GMT
            Not After : Jun 23 18:00:28 2025 GMT
        Subject: C=ES, O=teleco, CN=OCSP Root Responder
        Subject Public Key Info:
            Public Key Algorithm: rsaEncryption
                Public-Key: (2048 bit)
                Modulus:
                    00:aa:34:50:f9:f9:cd:fc:c5:4b:eb:a1:9d:3d:ed:
                    9e:43:70:e3:1f:ad:57:0f:1c:ed:34:6f:95:09:20:
                    50:d1:8f:7e:d4:8a:21:49:1c:67:f2:a2:fb:b6:f3:
                    3b:b5:50:66:0a:88:9b:07:71:e4:29:01:ef:ed:f6:
                    b9:f6:6e:63:1b:09:f1:e5:47:58:c9:a0:09:10:4f:
                    cf:71:b5:20:0a:3d:fd:ed:ab:3b:63:27:d6:58:c3:
                    d0:70:f4:4c:4d:bc:61:dc:1f:47:14:75:cc:c2:39:
                    d2:f4:04:82:ba:15:84:3c:df:97:be:01:69:39:5a:
                    a5:2e:3f:fe:88:10:2c:34:64:11:92:de:43:1e:df:
                    ce:e7:7a:9b:a6:db:65:b4:00:49:c0:a6:f0:04:e4:
                    d0:09:9f:82:f8:4f:92:2a:d8:44:33:6c:24:06:3c:
                    37:75:14:24:a3:5d:15:63:1d:38:e7:ee:d8:ec:86:
                    60:45:68:96:0e:7d:7f:95:43:a3:6d:83:9f:86:cc:
                    07:e5:60:8d:a9:41:cf:02:21:01:f8:fe:10:69:7a:
                    03:a0:6f:12:92:96:6c:fd:62:e9:ff:86:5c:8e:9d:
                    1a:31:ff:15:f1:af:a6:d0:98:c3:af:00:10:7a:3d:
                    37:93:ed:35:7a:ca:50:31:8f:26:29:99:59:15:03:
                    52:23
                Exponent: 65537 (0x10001)
        X509v3 extensions:
            X509v3 Authority Key Identifier: 
                F8:DB:9E:DA:E8:20:2E:99:26:81:D7:F7:DB:46:18:5B:AB:D5:D0:A3
            X509v3 Basic Constraints: critical
                CA:FALSE
            X509v3 Extended Key Usage: 
                OCSP Signing
            X509v3 Key Usage: critical
                Digital Signature
            X509v3 Subject Key Identifier: 
                F9:42:88:BB:0C:F0:CC:06:43:E7:B7:06:2E:06:0F:AE:D5:3C:F3:63
    Signature Algorithm: sha256WithRSAEncryption
    Signature Value:
        20:df:9b:85:37:63:49:60:fb:b3:be:95:17:9c:85:6a:64:91:
        45:94:e1:d5:e1:0d:2b:57:99:7f:8d:28:83:f2:df:11:6f:e2:
        97:ba:88:0b:85:77:82:88:9e:24:ae:fb:cf:a8:81:57:04:43:
        c8:56:3a:78:4f:e9:75:73:73:33:a4:69:fa:cf:bc:2f:ce:99:
        b1:58:71:bb:15:7e:d0:1b:9e:ba:83:df:36:d6:5f:84:af:f2:
        70:fe:c6:d7:a5:d4:11:7f:1c:84:45:78:0a:3c:4d:25:1a:56:
        51:70:2f:f8:69:ef:1c:a7:37:59:fe:b7:75:68:77:77:c8:95:
        de:95:b0:42:ba:e6:b7:84:e2:d5:e1:4c:ca:4c:38:1f:94:44:
        5a:17:6b:ef:e4:d0:50:67:1a:3d:6a:7d:26:f8:63:20:f6:3a:
        06:d8:8b:7a:b2:97:c6:45:5e:54:56:36:36:7e:81:f2:aa:a6:
        db:71:7f:32:ee:6a:71:92:20:89:27:fc:f6:6f:4b:8e:51:c4:
        d8:d7:4e:4f:7f:a2:bb:c3:5a:56:5f:dd:fb:3f:40:08:a6:47:
        9a:e5:d8:5f:03:1c:6a:15:c1:51:fc:b6:bd:ef:38:7d:eb:df:
        ba:ac:ac:60:15:81:82:f5:0f:c0:90:1c:bb:7c:3a:41:80:84:
        7c:2e:eb:35:52:31:94:a8:4f:41:aa:5d:a0:53:91:bf:33:1a:
        6a:27:88:cb:3a:01:b7:09:6e:af:f3:4d:db:19:c4:b0:f6:61:
        e5:1b:ca:fb:86:be:b4:1c:e5:de:16:2a:1e:e4:4f:22:e5:40:
        8d:cb:f3:33:90:31:d3:5a:1e:7a:81:c6:76:23:18:12:6d:d5:
        a0:cd:f0:b9:24:9d:7a:91:0c:5b:bb:a5:17:03:b7:c8:45:e4:
        e9:5a:cc:62:25:b1:d9:40:1a:3e:62:71:20:a9:3e:46:95:98:
        4e:a7:2f:79:fd:18:75:d8:c9:7e:e1:ee:06:ef:39:81:a3:7a:
        a4:a1:ab:97:3d:ed:7c:f4:42:a7:53:82:d3:69:8e:46:fc:e4:
        c1:b3:fa:94:f2:d9:2e:63:1a:3c:06:f5:21:20:f6:22:61:37:
        cc:ba:8b:85:7b:6d:4d:73:de:e1:b7:0c:15:46:c1:78:b3:09:
        6c:5c:b0:fd:90:c1:75:dc:16:63:23:93:3d:c7:ca:3b:de:7e:
        c5:21:ed:95:3e:d3:ee:ab:fb:31:8b:bb:b6:18:6a:0a:f4:eb:
        ee:16:b3:22:37:d6:ab:9b:4a:1b:80:f5:16:1f:24:94:72:6b:
        35:81:e2:b4:b4:a0:4e:92:57:43:e3:27:de:2b:e0:b9:ca:f8:
        4b:a3:30:c4:ba:45:29:22
-----BEGIN CERTIFICATE-----
MIIEazCCAlOgAwIBAgIQaogtUifvnRZrr5VxHW3iPzANBgkqhkiG9w0BAQsFADAw
MQswCQYDVQQGEwJFUzEPMA0GA1UECgwGdGVsZWNvMRAwDgYDVQQDDAdSb290IENB
MB4XDTI0MDYyODE4MDAyOFoXDTI1MDYyMzE4MDAyOFowPDELMAkGA1UEBhMCRVMx
DzANBgNVBAoMBnRlbGVjbzEcMBoGA1UEAwwTT0NTUCBSb290IFJlc3BvbmRlcjCC
ASIwDQYJKoZIhvcNAQEBBQADggEPADCCAQoCggEBAKo0UPn5zfzFS+uhnT3tnkNw
4x+tVw8c7TRvlQkgUNGPftSKIUkcZ/Ki+7bzO7VQZgqImwdx5CkB7+32ufZuYxsJ
8eVHWMmgCRBPz3G1IAo9/e2rO2Mn1ljD0HD0TE28YdwfRxR1zMI50vQEgroVhDzf
l74BaTlapS4//ogQLDRkEZLeQx7fzud6m6bbZbQAScCm8ATk0AmfgvhPkirYRDNs
JAY8N3UUJKNdFWMdOOfu2OyGYEVolg59f5VDo22Dn4bMB+VgjalBzwIhAfj+EGl6
A6BvEpKWbP1i6f+GXI6dGjH/FfGvptCYw68AEHo9N5PtNXrKUDGPJimZWRUDUiMC
AwEAAaN1MHMwHwYDVR0jBBgwFoAU+Nue2uggLpkmgdf320YYW6vV0KMwDAYDVR0T
AQH/BAIwADATBgNVHSUEDDAKBggrBgEFBQcDCTAOBgNVHQ8BAf8EBAMCB4AwHQYD
VR0OBBYEFPlCiLsM8MwGQ+e3Bi4GD67VPPNjMA0GCSqGSIb3DQEBCwUAA4ICAQAg
35uFN2NJYPuzvpUXnIVqZJFFlOHV4Q0rV5l/jSiD8t8Rb+KXuogLhXeCiJ4krvvP
qIFXBEPIVjp4T+l1c3MzpGn6z7wvzpmxWHG7FX7QG566g9821l+Er/Jw/sbXpdQR
fxyERXgKPE0lGlZRcC/4ae8cpzdZ/rd1aHd3yJXelbBCuua3hOLV4UzKTDgflERa
F2vv5NBQZxo9an0m+GMg9joG2It6spfGRV5UVjY2foHyqqbbcX8y7mpxkiCJJ/z2
b0uOUcTY105Pf6K7w1pWX937P0AIpkea5dhfAxxqFcFR/La97zh969+6rKxgFYGC
9Q/AkBy7fDpBgIR8Lus1UjGUqE9Bql2gU5G/MxpqJ4jLOgG3CW6v803bGcSw9mHl
G8r7hr60HOXeFioe5E8i5UCNy/MzkDHTWh56gcZ2IxgSbdWgzfC5JJ16kQxbu6UX
A7fIReTpWsxiJbHZQBo+YnEgqT5GlZhOpy95/Rh12Ml+4e4G7zmBo3qkoauXPe18
9EKnU4LTaY5G/OTBs/qU8tkuYxo8BvUhIPYiYTfMuouFe21Nc97htwwVRsF4swls
XLD9kMF13BZjI5M9x8o73n7FIe2VPtPuq/sxi7u2GGoK9OvuFrMiN9arm0obgPUW
HySUcms1geK0tKBOkldD4yfeK+C5yvhLozDEukUpIg==
-----END CERTIFICATE-----
