Certificate:
    Data:
        Version: 3 (0x2)
        Serial Number:
            7a:fc:0d:37:61:18:a4:f6:48:d8:9d:e2:c3:fd:ae:12
        Signature Algorithm: sha256WithRSAEncryption
        Issuer: C=ES, O=teleco, CN=Root CA
        Validity
            Not Before: Oct 31 15:23:12 2022 GMT
            Not After : Feb 28 15:23:12 2023 GMT
        Subject: C=ES, O=teleco, CN=OCSP Root Responder
        Subject Public Key Info:
            Public Key Algorithm: rsaEncryption
                Public-Key: (2048 bit)
                Modulus:
                    00:c1:70:b6:70:b9:21:b7:cc:64:5c:d9:38:43:e9:
                    c3:e4:a1:aa:36:cd:54:eb:06:be:78:00:1a:f5:d2:
                    c2:fb:eb:cf:f9:ab:ea:44:73:03:a3:c2:90:95:41:
                    54:a5:00:8e:2a:20:98:f8:df:20:36:32:dc:55:ae:
                    ac:fc:3e:18:ef:5c:c2:7d:6e:33:ae:89:97:b9:dc:
                    1f:3e:f8:3d:7e:cf:ee:6a:45:2a:08:ff:d6:23:d6:
                    5c:b2:aa:48:05:f7:ca:2c:36:07:06:c3:a8:78:31:
                    70:bb:c6:b3:4e:f8:71:81:43:15:3c:6b:7c:7a:55:
                    af:56:8d:f2:20:02:fe:0c:80:29:9f:ad:79:4e:06:
                    39:d9:30:9d:e0:ca:d7:9d:97:e7:ef:a2:c9:0e:f2:
                    c8:a4:21:12:ee:fe:60:6e:aa:df:34:8e:5c:13:3a:
                    f6:f6:00:87:33:b2:93:e6:d0:0c:73:5b:2f:7f:76:
                    f1:41:de:92:b5:42:87:bc:9f:78:2d:4b:f7:a0:0a:
                    42:76:3a:49:b3:28:7a:37:18:f1:5c:58:db:7b:0c:
                    ae:c9:68:af:fd:45:84:94:ce:b8:f4:96:79:2e:7e:
                    a4:36:f1:f9:39:d0:03:26:ee:59:a0:6d:06:d7:62:
                    d4:5c:32:bf:d7:b2:85:9c:f5:72:3b:06:c1:37:69:
                    86:8f
                Exponent: 65537 (0x10001)
        X509v3 extensions:
            X509v3 Authority Key Identifier: 
                51:9A:E9:94:A9:2D:0E:36:FC:B3:EE:98:3C:E8:D7:61:C9:DB:F3:BC
            X509v3 Basic Constraints: critical
                CA:FALSE
            X509v3 Extended Key Usage: 
                OCSP Signing
            X509v3 Key Usage: critical
                Digital Signature
            X509v3 Subject Key Identifier: 
                76:38:E8:FD:62:E2:B2:E4:FE:72:2E:AF:73:64:4B:36:52:3F:4A:A1
    Signature Algorithm: sha256WithRSAEncryption
    Signature Value:
        78:51:1d:4e:5b:15:b2:4e:3c:5c:5c:e7:2e:0e:fe:b9:0e:ae:
        14:e6:e1:b4:62:0b:c3:de:cd:aa:8c:5b:ff:e5:93:c2:5c:13:
        4c:51:cd:d2:0b:9f:a4:43:a9:d1:dd:26:8d:e2:8a:06:56:04:
        5d:58:cb:94:cd:8a:e3:50:d3:de:2c:0f:57:37:2f:d5:65:cc:
        e3:00:0f:dc:48:db:5a:11:47:cb:36:ce:49:f9:01:88:18:87:
        6f:1a:28:2f:11:80:12:de:f5:b9:33:a3:04:b4:b4:85:2e:5c:
        a8:f4:3a:ea:2d:fe:bd:16:87:c2:41:55:a6:fb:7d:49:9d:30:
        c2:b9:3b:e1:a0:f2:18:32:0f:56:60:c5:72:72:81:3d:d7:f4:
        13:aa:cd:c4:11:15:e2:e9:71:a4:83:e5:32:8c:6b:aa:6b:3c:
        61:6a:89:ff:5d:41:fd:ba:2e:26:c2:81:dc:2a:bd:15:8b:5c:
        de:76:78:42:46:6e:ab:c9:3a:d8:b5:aa:61:90:e0:bb:50:74:
        8a:78:64:10:78:89:0f:65:33:22:46:92:2d:dc:81:b5:9b:bd:
        35:74:31:02:a8:ad:72:51:29:c2:7a:41:8c:eb:45:17:8b:bb:
        23:0a:41:d9:02:85:8c:46:54:40:8f:fc:8b:f0:7b:11:af:db:
        bc:bf:dc:62:e4:31:30:a0:19:00:40:d6:1d:76:d0:58:c5:8f:
        f8:ca:e3:5a:28:74:fb:64:a4:1d:4d:61:e5:82:85:28:46:ff:
        66:70:4a:e5:a5:3e:fc:8f:56:57:3c:00:6b:04:cd:ff:85:cd:
        fe:94:4d:67:a0:97:7c:51:37:a9:60:84:90:64:44:44:f1:f9:
        9c:3e:ce:ea:c7:f0:56:76:91:27:83:2b:3c:d4:0f:33:c7:ae:
        84:17:f7:2f:fd:19:7f:89:6f:c8:96:10:23:5c:4b:a4:48:57:
        19:6c:2e:a8:62:d1:92:ed:9f:39:d4:3a:2f:a4:73:65:cf:95:
        ea:02:16:30:55:77:a1:0b:5e:1c:89:5e:21:0c:e3:4a:41:36:
        e6:b8:c0:03:fc:65:46:ef:c3:62:bf:13:8f:bb:8e:4b:94:03:
        1c:cc:4c:cd:cd:4d:ee:ea:76:1a:06:38:75:f2:27:22:c1:be:
        c8:e8:bf:12:27:13:10:83:9c:b9:c3:31:2a:71:be:9a:b8:f3:
        db:bd:ef:c5:a6:7a:fd:d1:c6:35:9d:e4:d2:e2:24:6f:cc:91:
        43:9e:ec:d1:c5:dd:75:ff:41:04:b0:ce:51:6d:56:4d:c7:07:
        20:6e:28:3f:89:0a:b0:54:d7:ae:02:64:be:dd:ba:13:11:04:
        b1:5f:17:b9:5d:72:1f:1f
-----BEGIN CERTIFICATE-----
MIIEazCCAlOgAwIBAgIQevwNN2EYpPZI2J3iw/2uEjANBgkqhkiG9w0BAQsFADAw
MQswCQYDVQQGEwJFUzEPMA0GA1UECgwGdGVsZWNvMRAwDgYDVQQDDAdSb290IENB
MB4XDTIyMTAzMTE1MjMxMloXDTIzMDIyODE1MjMxMlowPDELMAkGA1UEBhMCRVMx
DzANBgNVBAoMBnRlbGVjbzEcMBoGA1UEAwwTT0NTUCBSb290IFJlc3BvbmRlcjCC
ASIwDQYJKoZIhvcNAQEBBQADggEPADCCAQoCggEBAMFwtnC5IbfMZFzZOEPpw+Sh
qjbNVOsGvngAGvXSwvvrz/mr6kRzA6PCkJVBVKUAjiogmPjfIDYy3FWurPw+GO9c
wn1uM66Jl7ncHz74PX7P7mpFKgj/1iPWXLKqSAX3yiw2BwbDqHgxcLvGs074cYFD
FTxrfHpVr1aN8iAC/gyAKZ+teU4GOdkwneDK152X5++iyQ7yyKQhEu7+YG6q3zSO
XBM69vYAhzOyk+bQDHNbL3928UHekrVCh7yfeC1L96AKQnY6SbMoejcY8VxY23sM
rslor/1FhJTOuPSWeS5+pDbx+TnQAybuWaBtBtdi1Fwyv9eyhZz1cjsGwTdpho8C
AwEAAaN1MHMwHwYDVR0jBBgwFoAUUZrplKktDjb8s+6YPOjXYcnb87wwDAYDVR0T
AQH/BAIwADATBgNVHSUEDDAKBggrBgEFBQcDCTAOBgNVHQ8BAf8EBAMCB4AwHQYD
VR0OBBYEFHY46P1i4rLk/nIur3NkSzZSP0qhMA0GCSqGSIb3DQEBCwUAA4ICAQB4
UR1OWxWyTjxcXOcuDv65Dq4U5uG0YgvD3s2qjFv/5ZPCXBNMUc3SC5+kQ6nR3SaN
4ooGVgRdWMuUzYrjUNPeLA9XNy/VZczjAA/cSNtaEUfLNs5J+QGIGIdvGigvEYAS
3vW5M6MEtLSFLlyo9DrqLf69FofCQVWm+31JnTDCuTvhoPIYMg9WYMVycoE91/QT
qs3EERXi6XGkg+UyjGuqazxhaon/XUH9ui4mwoHcKr0Vi1zednhCRm6ryTrYtaph
kOC7UHSKeGQQeIkPZTMiRpIt3IG1m701dDECqK1yUSnCekGM60UXi7sjCkHZAoWM
RlRAj/yL8HsRr9u8v9xi5DEwoBkAQNYddtBYxY/4yuNaKHT7ZKQdTWHlgoUoRv9m
cErlpT78j1ZXPABrBM3/hc3+lE1noJd8UTepYISQZERE8fmcPs7qx/BWdpEngys8
1A8zx66EF/cv/Rl/iW/IlhAjXEukSFcZbC6oYtGS7Z851DovpHNlz5XqAhYwVXeh
C14ciV4hDONKQTbmuMAD/GVG78NivxOPu45LlAMczEzNzU3u6nYaBjh18iciwb7I
6L8SJxMQg5y5wzEqcb6auPPbve/Fpnr90cY1neTS4iRvzJFDnuzRxd11/0EEsM5R
bVZNxwcgbig/iQqwVNeuAmS+3boTEQSxXxe5XXIfHw==
-----END CERTIFICATE-----
