Certificate:
    Data:
        Version: 3 (0x2)
        Serial Number:
            d0:a4:69:41:4e:c5:c5:bb:12:81:fc:00:5b:ac:fe:6e
        Signature Algorithm: sha256WithRSAEncryption
        Issuer: C=ES, O=teleco, CN=Root CA
        Validity
            Not Before: Jun 29 17:47:15 2024 GMT
            Not After : Jun 27 17:47:15 2034 GMT
        Subject: C=ES, O=teleco, CN=Root CA
        Subject Public Key Info:
            Public Key Algorithm: rsaEncryption
                Public-Key: (4096 bit)
                Modulus:
                    00:e0:d3:6f:5a:c1:69:1d:b0:8b:7b:ad:c8:5e:01:
                    93:40:a6:bd:19:17:d0:36:c0:24:fd:c5:63:10:46:
                    77:43:e6:e7:47:ea:d6:6d:28:b6:6a:de:f5:15:46:
                    1f:2a:16:ab:d2:c8:fc:7f:40:92:51:f0:a4:88:86:
                    86:57:43:ec:27:ab:1e:60:d4:b6:ba:74:66:e2:f9:
                    26:2a:ce:a7:5b:f0:7c:ea:f6:c5:96:b2:ca:2a:1d:
                    3a:4a:1d:c2:a6:e3:0b:f1:dc:7a:50:a9:7c:74:66:
                    8b:30:ca:62:81:f6:1e:fc:8c:d2:6a:97:45:5b:02:
                    24:ff:71:b8:f0:9a:3c:bb:5d:45:69:12:34:35:e6:
                    d6:98:74:b6:62:a3:3d:ac:a8:f6:b3:c6:fb:e7:81:
                    c4:fd:91:6e:34:4c:67:f7:89:2e:d8:06:ac:32:1e:
                    6f:65:d6:ff:e2:13:58:22:56:a0:00:21:0b:86:2d:
                    e5:a7:99:01:8f:24:a7:0f:63:cf:2a:e8:0c:c9:26:
                    8d:89:58:1a:61:50:c8:9e:05:9a:22:d9:d9:60:1a:
                    0b:48:4c:55:a3:cc:61:12:c1:9e:48:50:3b:96:ad:
                    7f:94:e1:f8:f9:84:ea:b1:09:45:ae:ef:42:6a:f9:
                    f9:ae:26:04:48:64:fc:05:e3:63:c2:a8:bf:0e:b6:
                    dc:df:6c:10:dc:b6:8a:38:ea:de:a2:b8:47:69:fc:
                    38:25:e2:5b:d0:20:9d:75:c8:51:42:e4:30:05:8e:
                    8f:d9:64:91:5d:58:b4:58:fc:d2:64:d8:86:2d:7c:
                    c2:81:36:ad:e9:11:67:7e:4e:d0:d1:4b:b2:5f:fb:
                    eb:a3:d9:db:97:d3:44:f4:88:b4:bb:75:d8:c0:4a:
                    23:14:47:3a:aa:c1:77:69:6e:5a:2c:db:fd:0a:af:
                    a1:38:c4:0d:4f:c3:22:f2:15:3b:9f:f2:42:82:9b:
                    22:0d:60:92:9d:d4:6b:5d:f4:6d:3a:23:6f:e0:06:
                    cb:4b:80:e4:14:5c:91:79:d3:89:64:75:26:1d:e6:
                    22:c1:da:d4:50:fd:8e:a4:3c:c3:69:ac:fe:10:4f:
                    c2:3b:17:37:cd:d2:ce:30:12:5c:f0:37:13:14:39:
                    61:32:b1:84:d9:49:fb:94:8c:62:9d:ef:3d:b4:ed:
                    63:df:a9:05:25:cf:78:64:db:c2:55:4a:f9:61:6a:
                    eb:09:06:f1:04:cd:ba:eb:1a:44:d8:1a:4d:9b:81:
                    29:f3:1e:1a:69:e0:5b:a6:30:b2:e2:50:2d:ce:e8:
                    18:09:70:7f:56:b1:33:d3:60:6a:c0:e9:d9:fa:8c:
                    c6:19:fd:31:82:3b:c7:07:f2:7f:e6:09:e3:cc:11:
                    1e:16:8d
                Exponent: 65537 (0x10001)
        X509v3 extensions:
            X509v3 Basic Constraints: critical
                CA:TRUE
            X509v3 Key Usage: critical
                Certificate Sign, CRL Sign
            X509v3 Subject Key Identifier: 
                E2:20:C9:E0:9C:74:0C:A1:94:6C:96:E3:77:17:76:FB:D2:E9:9D:25
    Signature Algorithm: sha256WithRSAEncryption
    Signature Value:
        af:51:cd:d6:51:15:81:d2:02:9e:68:24:a3:ff:cd:e1:06:24:
        3f:3c:e5:b1:35:16:17:a1:22:59:c9:20:0a:6a:ac:d5:de:8b:
        2e:e0:15:30:d3:39:bd:43:5c:8e:86:11:c2:1f:51:3e:51:60:
        5e:cc:ab:dd:06:7c:6a:87:c8:76:80:fc:d6:b4:9c:99:c0:d5:
        55:65:1d:59:41:87:bb:a7:72:7f:ed:f4:5e:b5:32:fd:de:cb:
        00:df:91:28:e0:af:3e:5a:30:ed:15:a2:97:ef:3f:61:e9:b7:
        74:79:0a:64:81:10:ca:f4:71:75:e4:08:48:d9:29:a5:c2:b0:
        4c:d0:9f:70:47:ea:aa:cf:d3:ef:61:dd:ad:fa:8e:08:df:57:
        7f:f4:ab:ce:f6:33:46:e9:00:d4:d0:48:af:31:fe:c4:52:d1:
        41:ce:f8:e9:d7:10:14:bb:28:47:ab:e4:6b:87:5b:17:f2:11:
        ed:30:38:cc:e0:48:db:10:c0:dc:eb:be:e4:af:f2:2a:a3:e6:
        e5:81:84:1e:0e:25:f1:15:8f:88:fd:26:29:3f:fb:2f:cc:57:
        9d:3d:66:54:3a:82:76:5a:99:22:f5:c5:27:90:23:99:ac:22:
        5d:38:66:e9:0d:ef:65:74:53:db:cb:44:3b:2d:dc:dd:07:db:
        a1:30:d5:86:61:65:f5:32:ec:1a:64:ed:0d:b4:e3:11:09:44:
        53:cc:60:37:24:64:ff:65:78:31:ad:5e:7b:a9:35:2c:16:51:
        c6:dd:b0:dc:f8:a1:13:6a:60:e9:b7:83:b0:5b:c6:88:f8:50:
        91:50:f3:ac:9c:18:33:d3:24:72:94:0b:f2:c8:a4:4b:31:0e:
        6a:72:6d:ab:4c:23:0e:72:d6:b1:f4:09:2e:4c:d2:07:23:d0:
        fc:28:b4:56:21:85:fd:e3:c4:d7:1b:8e:63:c4:23:37:0e:08:
        03:b7:ed:e1:13:ef:17:16:39:8a:b3:34:27:9e:a1:65:ad:cf:
        73:63:9d:a3:de:73:00:83:da:06:e8:1a:63:96:96:3a:a7:5d:
        e6:c7:16:7e:64:17:f2:e0:7d:3c:eb:9d:12:5e:ad:e1:db:f4:
        4f:86:74:54:79:c1:a8:22:f4:32:a7:98:d5:02:6e:a7:29:82:
        b3:26:80:cf:f9:a9:a0:14:28:68:8e:d9:4e:b4:dd:25:76:04:
        db:e8:9a:64:01:5e:41:50:07:83:7c:26:3a:fa:2f:5a:c7:31:
        21:1a:25:6c:fd:10:73:20:e8:81:82:53:aa:83:22:a0:b4:e4:
        61:56:93:22:32:d5:88:34:11:7a:e7:02:18:08:55:1f:ff:02:
        8f:44:8c:2f:9a:29:17:53
-----BEGIN CERTIFICATE-----
MIIFLTCCAxWgAwIBAgIRANCkaUFOxcW7EoH8AFus/m4wDQYJKoZIhvcNAQELBQAw
MDELMAkGA1UEBhMCRVMxDzANBgNVBAoMBnRlbGVjbzEQMA4GA1UEAwwHUm9vdCBD
QTAeFw0yNDA2MjkxNzQ3MTVaFw0zNDA2MjcxNzQ3MTVaMDAxCzAJBgNVBAYTAkVT
MQ8wDQYDVQQKDAZ0ZWxlY28xEDAOBgNVBAMMB1Jvb3QgQ0EwggIiMA0GCSqGSIb3
DQEBAQUAA4ICDwAwggIKAoICAQDg029awWkdsIt7rcheAZNApr0ZF9A2wCT9xWMQ
RndD5udH6tZtKLZq3vUVRh8qFqvSyPx/QJJR8KSIhoZXQ+wnqx5g1La6dGbi+SYq
zqdb8Hzq9sWWssoqHTpKHcKm4wvx3HpQqXx0ZoswymKB9h78jNJql0VbAiT/cbjw
mjy7XUVpEjQ15taYdLZioz2sqPazxvvngcT9kW40TGf3iS7YBqwyHm9l1v/iE1gi
VqAAIQuGLeWnmQGPJKcPY88q6AzJJo2JWBphUMieBZoi2dlgGgtITFWjzGESwZ5I
UDuWrX+U4fj5hOqxCUWu70Jq+fmuJgRIZPwF42PCqL8OttzfbBDctoo46t6iuEdp
/Dgl4lvQIJ11yFFC5DAFjo/ZZJFdWLRY/NJk2IYtfMKBNq3pEWd+TtDRS7Jf++uj
2duX00T0iLS7ddjASiMURzqqwXdpblos2/0Kr6E4xA1PwyLyFTuf8kKCmyINYJKd
1Gtd9G06I2/gBstLgOQUXJF504lkdSYd5iLB2tRQ/Y6kPMNprP4QT8I7FzfN0s4w
ElzwNxMUOWEysYTZSfuUjGKd7z207WPfqQUlz3hk28JVSvlhausJBvEEzbrrGkTY
Gk2bgSnzHhpp4FumMLLiUC3O6BgJcH9WsTPTYGrA6dn6jMYZ/TGCO8cH8n/mCePM
ER4WjQIDAQABo0IwQDAPBgNVHRMBAf8EBTADAQH/MA4GA1UdDwEB/wQEAwIBBjAd
BgNVHQ4EFgQU4iDJ4Jx0DKGUbJbjdxd2+9LpnSUwDQYJKoZIhvcNAQELBQADggIB
AK9RzdZRFYHSAp5oJKP/zeEGJD885bE1FhehIlnJIApqrNXeiy7gFTDTOb1DXI6G
EcIfUT5RYF7Mq90GfGqHyHaA/Na0nJnA1VVlHVlBh7uncn/t9F61Mv3eywDfkSjg
rz5aMO0VopfvP2Hpt3R5CmSBEMr0cXXkCEjZKaXCsEzQn3BH6qrP0+9h3a36jgjf
V3/0q872M0bpANTQSK8x/sRS0UHO+OnXEBS7KEer5GuHWxfyEe0wOMzgSNsQwNzr
vuSv8iqj5uWBhB4OJfEVj4j9Jik/+y/MV509ZlQ6gnZamSL1xSeQI5msIl04ZukN
72V0U9vLRDst3N0H26Ew1YZhZfUy7Bpk7Q204xEJRFPMYDckZP9leDGtXnupNSwW
UcbdsNz4oRNqYOm3g7Bbxoj4UJFQ86ycGDPTJHKUC/LIpEsxDmpybatMIw5y1rH0
CS5M0gcj0PwotFYhhf3jxNcbjmPEIzcOCAO37eET7xcWOYqzNCeeoWWtz3NjnaPe
cwCD2gboGmOWljqnXebHFn5kF/LgfTzrnRJereHb9E+GdFR5wagi9DKnmNUCbqcp
grMmgM/5qaAUKGiO2U603SV2BNvommQBXkFQB4N8Jjr6L1rHMSEaJWz9EHMg6IGC
U6qDIqC05GFWkyIy1Yg0EXrnAhgIVR//Ao9EjC+aKRdT
-----END CERTIFICATE-----
