Certificate:
    Data:
        Version: 3 (0x2)
        Serial Number:
            f1:7d:15:26:9d:10:92:d8:a4:09:4f:77:d1:a4:98:95
        Signature Algorithm: sha256WithRSAEncryption
        Issuer: C=ES, O=teleco, CN=Sub CA Cliente
        Validity
            Not Before: Jun 30 19:00:04 2024 GMT
            Not After : Jun 28 19:00:04 2034 GMT
        Subject: C=ES, O=teleco, CN=client1
        Subject Public Key Info:
            Public Key Algorithm: rsaEncryption
                Public-Key: (2048 bit)
                Modulus:
                    00:a8:92:b6:d4:6d:e2:ad:2d:7e:d2:12:bc:ff:f8:
                    bf:30:0c:a8:cb:fc:76:38:ad:fb:0f:7e:af:7d:be:
                    89:1b:3e:6b:74:a7:cd:97:de:5a:ae:62:8a:d4:16:
                    a0:8f:ba:53:ab:78:f1:b0:44:00:db:69:33:1a:aa:
                    56:94:9a:c2:14:37:22:20:8c:c0:79:db:0e:c4:40:
                    5d:06:d0:24:31:0e:8a:be:69:1e:9d:f2:9b:b4:9f:
                    73:51:bc:2a:66:03:64:49:3b:15:47:12:d0:2a:6e:
                    73:92:ea:1f:f2:ed:fd:94:3c:ef:91:4b:cb:b9:71:
                    8d:43:ea:20:f5:cc:a9:ac:2c:d1:e6:91:92:20:7e:
                    68:94:83:aa:77:50:04:e5:60:86:6d:b0:01:66:03:
                    e2:b7:17:a3:3e:c5:0f:f5:a4:59:89:74:3c:a0:c3:
                    32:fb:c2:d0:25:35:1d:75:41:46:dc:aa:3c:bd:ce:
                    93:b7:8a:61:35:39:59:42:ff:54:7c:5d:c1:33:27:
                    30:bd:7d:72:f4:77:0a:a2:67:64:cf:0f:0b:52:20:
                    9f:71:0d:d5:0c:19:d2:fe:dc:a7:61:c4:b5:b8:90:
                    18:74:74:c2:d0:24:81:4a:63:7e:c3:ee:f7:d4:7a:
                    32:4d:ed:53:2f:f2:09:e7:fd:a5:0a:97:1f:98:01:
                    54:25
                Exponent: 65537 (0x10001)
        X509v3 extensions:
            Authority Information Access: 
                CA Issuers - URI:http://sub-ca-cliente.teleco.uvigo/sub-ca-cliente.crt
                OCSP - URI:http://ocsp.sub-ca-cliente.teleco.uvigo:9081
            X509v3 Authority Key Identifier: 
                E8:E8:70:67:0C:B0:F2:C2:05:1D:F8:2A:88:74:AF:F5:79:71:ED:E5
            X509v3 Basic Constraints: critical
                CA:FALSE
            X509v3 Extended Key Usage: 
                TLS Web Client Authentication
            X509v3 Key Usage: critical
                Digital Signature
            X509v3 Subject Key Identifier: 
                3F:4F:3F:BC:51:EF:87:D4:76:42:E4:81:C5:03:A0:34:8C:60:E9:9A
    Signature Algorithm: sha256WithRSAEncryption
    Signature Value:
        53:31:62:ad:eb:9c:cf:a8:76:68:24:67:85:ec:09:4b:c8:5c:
        42:44:ef:29:ee:9b:75:76:eb:32:eb:33:32:c5:a6:28:c3:79:
        60:01:41:a7:09:04:e2:15:1a:dd:92:71:a2:c8:2d:49:39:12:
        26:eb:d7:fd:c1:ad:ec:90:01:f3:54:5a:83:88:7f:cb:19:e8:
        6c:50:3c:8f:96:df:52:ce:47:55:4e:76:a9:62:29:15:c0:98:
        95:fd:d8:f7:e2:76:15:ae:a8:bd:a8:25:04:ff:44:09:6d:56:
        83:28:53:4b:0a:75:87:ff:19:0b:ea:bd:9a:fc:be:e8:9e:ab:
        a7:f8:c1:b1:c2:ca:5e:3b:37:a6:7f:92:1e:5f:1d:ac:b0:f0:
        47:5e:4e:2f:46:c3:f4:46:14:e5:01:51:30:c2:f0:fa:90:e0:
        fc:a2:34:58:05:cf:c1:c5:5c:29:da:06:05:c3:34:49:4f:f3:
        03:00:83:c6:0e:39:14:6a:f4:49:95:a8:65:03:44:eb:80:04:
        61:69:77:dd:56:64:94:4a:3f:47:64:62:08:1b:fa:8e:a9:bc:
        da:69:9d:56:78:7c:5a:2b:30:34:d0:d0:2b:25:c7:57:a6:d5:
        e5:1b:79:2c:61:17:9c:de:3c:a2:b7:9d:dc:f3:db:ef:55:ab:
        0d:b9:af:52:93:d0:24:b8:28:8d:e2:b3:9a:47:d2:e1:e0:fe:
        77:54:06:e9:26:9a:a0:d0:79:a2:ff:80:a2:39:04:44:44:62:
        3b:cf:39:04:75:dc:be:e0:40:f7:b6:bf:3c:2b:a3:2a:b1:e2:
        7f:1d:94:44:b0:18:33:c6:98:47:6a:98:05:94:51:af:28:a4:
        72:de:ef:1b:dc:3e:5d:1d:22:9a:b5:4f:54:71:22:4e:07:9f:
        80:b1:c1:a9:02:41:88:af:bb:41:b9:a5:ea:f3:c6:31:49:9a:
        bd:f5:00:b2:08:cb:bf:3e:ad:65:d1:89:02:e9:68:c3:53:96:
        97:b6:3e:f8:a8:95:25:5f:86:c6:91:4a:1c:83:d1:ce:63:7c:
        cf:78:d6:a0:b1:9b:71:6a:d7:59:2c:f0:88:2b:86:b0:2e:1b:
        c9:58:30:77:bd:6e:59:b3:0f:57:c1:89:4f:3f:25:63:36:78:
        5b:a5:ce:e7:49:ec:cb:93:37:3f:ba:7a:12:22:63:7c:33:db:
        25:6a:ba:f6:d4:6f:2e:39:e9:4b:3d:d2:03:5e:88:5c:79:4c:
        fa:5a:78:78:cc:7b:8f:2e:cf:a1:6f:0b:dd:0f:42:11:b1:df:
        36:a7:89:7a:f1:cf:27:99:9b:9a:5f:0a:e5:6a:aa:bc:29:29:
        cc:11:24:91:c0:70:92:88
-----BEGIN CERTIFICATE-----
MIIE+TCCAuGgAwIBAgIRAPF9FSadEJLYpAlPd9GkmJUwDQYJKoZIhvcNAQELBQAw
NzELMAkGA1UEBhMCRVMxDzANBgNVBAoMBnRlbGVjbzEXMBUGA1UEAwwOU3ViIENB
IENsaWVudGUwHhcNMjQwNjMwMTkwMDA0WhcNMzQwNjI4MTkwMDA0WjAwMQswCQYD
VQQGEwJFUzEPMA0GA1UECgwGdGVsZWNvMRAwDgYDVQQDDAdjbGllbnQxMIIBIjAN
BgkqhkiG9w0BAQEFAAOCAQ8AMIIBCgKCAQEAqJK21G3irS1+0hK8//i/MAyoy/x2
OK37D36vfb6JGz5rdKfNl95armKK1Bagj7pTq3jxsEQA22kzGqpWlJrCFDciIIzA
edsOxEBdBtAkMQ6KvmkenfKbtJ9zUbwqZgNkSTsVRxLQKm5zkuof8u39lDzvkUvL
uXGNQ+og9cyprCzR5pGSIH5olIOqd1AE5WCGbbABZgPitxejPsUP9aRZiXQ8oMMy
+8LQJTUddUFG3Ko8vc6Tt4phNTlZQv9UfF3BMycwvX1y9HcKomdkzw8LUiCfcQ3V
DBnS/tynYcS1uJAYdHTC0CSBSmN+w+731HoyTe1TL/IJ5/2lCpcfmAFUJQIDAQAB
o4IBBTCCAQEwgYsGCCsGAQUFBwEBBH8wfTBBBggrBgEFBQcwAoY1aHR0cDovL3N1
Yi1jYS1jbGllbnRlLnRlbGVjby51dmlnby9zdWItY2EtY2xpZW50ZS5jcnQwOAYI
KwYBBQUHMAGGLGh0dHA6Ly9vY3NwLnN1Yi1jYS1jbGllbnRlLnRlbGVjby51dmln
bzo5MDgxMB8GA1UdIwQYMBaAFOjocGcMsPLCBR34Koh0r/V5ce3lMAwGA1UdEwEB
/wQCMAAwEwYDVR0lBAwwCgYIKwYBBQUHAwIwDgYDVR0PAQH/BAQDAgeAMB0GA1Ud
DgQWBBQ/Tz+8Ue+H1HZC5IHFA6A0jGDpmjANBgkqhkiG9w0BAQsFAAOCAgEAUzFi
reucz6h2aCRnhewJS8hcQkTvKe6bdXbrMuszMsWmKMN5YAFBpwkE4hUa3ZJxosgt
STkSJuvX/cGt7JAB81Rag4h/yxnobFA8j5bfUs5HVU52qWIpFcCYlf3Y9+J2Fa6o
vaglBP9ECW1WgyhTSwp1h/8ZC+q9mvy+6J6rp/jBscLKXjs3pn+SHl8drLDwR15O
L0bD9EYU5QFRMMLw+pDg/KI0WAXPwcVcKdoGBcM0SU/zAwCDxg45FGr0SZWoZQNE
64AEYWl33VZklEo/R2RiCBv6jqm82mmdVnh8WiswNNDQKyXHV6bV5Rt5LGEXnN48
ored3PPb71WrDbmvUpPQJLgojeKzmkfS4eD+d1QG6SaaoNB5ov+AojkERERiO885
BHXcvuBA97a/PCujKrHifx2URLAYM8aYR2qYBZRRryikct7vG9w+XR0imrVPVHEi
TgefgLHBqQJBiK+7Qbml6vPGMUmavfUAsgjLvz6tZdGJAulow1OWl7Y++KiVJV+G
xpFKHIPRzmN8z3jWoLGbcWrXWSzwiCuGsC4byVgwd71uWbMPV8GJTz8lYzZ4W6XO
50nsy5M3P7p6EiJjfDPbJWq69tRvLjnpSz3SA16IXHlM+lp4eMx7jy7PoW8L3Q9C
EbHfNqeJevHPJ5mbml8K5WqqvCkpzBEkkcBwkog=
-----END CERTIFICATE-----
