Certificate:
    Data:
        Version: 3 (0x2)
        Serial Number:
            d0:a4:69:41:4e:c5:c5:bb:12:81:fc:00:5b:ac:fe:74
        Signature Algorithm: sha256WithRSAEncryption
        Issuer: C=ES, O=teleco, CN=Root CA
        Validity
            Not Before: Jun 30 18:57:01 2024 GMT
            Not After : Jun 28 18:57:01 2034 GMT
        Subject: C=ES, O=teleco, CN=Sub CA Cliente
        Subject Public Key Info:
            Public Key Algorithm: rsaEncryption
                Public-Key: (4096 bit)
                Modulus:
                    00:af:87:16:8f:d5:76:57:8a:f3:ef:1b:8f:8f:37:
                    4b:59:52:a2:31:3c:19:dd:7c:af:c9:a0:a8:3e:1a:
                    e4:2d:b1:a4:5a:8e:85:e1:28:a8:eb:2e:df:9f:97:
                    3b:f8:0f:c9:6c:0c:90:dc:9a:0e:5b:2e:9a:cc:bd:
                    2e:b9:18:32:e1:f7:03:60:0d:09:55:f1:6e:ed:86:
                    74:00:fb:f6:b6:01:07:ba:d6:59:77:e8:ad:90:93:
                    d2:e5:dc:84:12:e9:7a:2c:18:54:6c:92:63:6b:b3:
                    b5:f5:63:e5:80:29:a2:3b:3c:cd:ba:23:7e:42:f2:
                    f2:bb:70:44:f7:7f:d6:1b:06:1a:54:4f:63:8c:c9:
                    27:5c:39:ed:9a:54:24:56:49:82:84:c0:12:e6:1d:
                    39:19:b9:d1:aa:55:b5:7b:c6:bd:5f:c2:eb:17:42:
                    95:1a:af:96:ac:7b:e6:31:c7:6c:f1:31:88:21:c7:
                    b4:29:d6:0e:69:07:46:ec:41:89:64:ea:28:97:5a:
                    35:0f:3a:f3:08:91:72:1f:6f:dd:df:1c:e9:d4:2c:
                    fb:2a:4e:07:b4:3f:8e:d7:67:f5:ad:04:74:87:07:
                    da:b0:c5:69:1c:84:83:61:39:ba:70:30:ac:aa:38:
                    0a:20:39:8e:b2:de:a0:23:8b:f6:77:45:bb:50:8d:
                    a8:59:b3:ed:f2:43:11:bc:47:36:f8:84:ea:bb:fb:
                    c2:ff:b5:45:7e:44:18:4e:fc:14:77:00:a3:0d:e7:
                    b3:3d:42:4f:6f:2a:c5:69:7d:c0:c5:de:4d:6f:ca:
                    ba:c7:dd:26:27:f8:a6:48:36:c9:31:18:89:3a:ba:
                    a4:2b:eb:19:d7:54:36:98:3e:73:7c:a0:8d:27:78:
                    82:44:2b:34:79:bd:e7:07:30:df:4c:f3:76:e4:f1:
                    9a:18:25:fe:8f:df:30:1d:98:d0:b0:37:14:81:a7:
                    54:cc:a9:af:d0:43:ca:9e:ca:3e:43:07:27:ab:b1:
                    33:a0:b2:c2:f6:d9:27:d4:fa:53:fb:24:8a:32:2d:
                    c6:3f:82:e2:cc:8c:43:98:c9:ba:bb:b4:f4:95:d0:
                    dc:7c:3f:fd:04:36:60:ea:c6:f3:f3:2f:af:c4:6a:
                    0f:a7:bb:39:bb:06:fb:7f:7a:bb:5a:43:9a:aa:65:
                    a7:30:39:68:b0:d6:44:39:8e:3e:74:ae:e9:39:9b:
                    17:19:06:06:1b:5c:61:5d:32:e2:e3:dd:13:95:5f:
                    2c:7a:fb:d0:b5:db:e6:2a:f3:38:c5:8b:5b:4e:89:
                    48:f9:8e:79:04:1a:48:4d:e7:44:0f:70:e5:81:f4:
                    e3:62:1b:cb:ea:17:09:fa:80:b6:bf:22:57:81:57:
                    f7:31:41
                Exponent: 65537 (0x10001)
        X509v3 extensions:
            Authority Information Access: 
                CA Issuers - URI:http://root-ca.teleco.uvigo/root-ca.crt
                OCSP - URI:http://ocsp.root-ca.teleco.uvigo:9080
            X509v3 Authority Key Identifier: 
                E2:20:C9:E0:9C:74:0C:A1:94:6C:96:E3:77:17:76:FB:D2:E9:9D:25
            X509v3 Basic Constraints: critical
                CA:TRUE, pathlen:0
            X509v3 CRL Distribution Points: 
                Full Name:
                  URI:http://root-ca.teleco.uvigo/root-ca.crl
            X509v3 Extended Key Usage: 
                TLS Web Client Authentication, TLS Web Server Authentication
            X509v3 Key Usage: critical
                Certificate Sign, CRL Sign
            X509v3 Name Constraints: 
                Permitted:
                  DNS:example.com
                  DNS:example.org
                Excluded:
                  IP:0.0.0.0/0.0.0.0
                  IP:0:0:0:0:0:0:0:0/0:0:0:0:0:0:0:0
            X509v3 Subject Key Identifier: 
                E8:E8:70:67:0C:B0:F2:C2:05:1D:F8:2A:88:74:AF:F5:79:71:ED:E5
    Signature Algorithm: sha256WithRSAEncryption
    Signature Value:
        af:0b:a8:76:ee:9c:e6:9c:9e:1e:3d:96:5a:ad:29:42:f8:39:
        8d:59:1d:ec:7c:b2:64:77:60:cb:86:1f:d3:4c:ed:17:e7:b4:
        09:76:bd:c2:04:56:a2:07:6a:ce:d3:c5:40:0f:ef:09:be:8a:
        15:60:b9:7c:61:05:4c:8b:26:29:f1:39:85:6f:ab:9d:e1:6e:
        09:1d:0b:b9:e0:9d:fe:b2:ed:03:d2:8d:38:a4:5f:df:3f:0e:
        50:38:42:57:2b:ed:83:f8:19:9b:25:70:3c:92:7e:60:de:50:
        e2:dc:f5:4d:88:da:87:96:2c:8e:5d:e7:ad:39:45:c3:dd:d2:
        7c:c9:84:18:b5:a0:c9:11:93:db:f0:a7:84:6c:e1:97:9a:8a:
        d6:c8:e6:31:86:f8:67:29:dc:94:c9:ce:29:a4:8e:b6:09:20:
        2a:8f:1d:f2:69:b4:ba:14:7c:34:14:e9:44:c8:cb:a6:fc:3d:
        6b:56:48:4a:23:1a:f0:91:ec:55:73:68:a2:4c:12:7f:25:fa:
        85:f6:d4:9f:87:12:25:3e:01:f1:7b:5e:20:73:ff:86:56:5c:
        fe:91:22:bb:f5:69:8f:59:83:29:c9:ad:3e:9e:94:e6:fc:5e:
        fe:f2:8d:c6:39:d4:7b:98:81:2f:16:b6:10:b7:f8:e4:82:02:
        6d:d4:d8:7b:8e:13:99:90:28:e2:28:a3:6c:51:33:15:87:a9:
        5f:1c:10:ad:77:2f:b8:db:d5:71:78:12:f9:37:31:f8:e2:ca:
        0a:84:40:21:e6:97:7b:03:4a:3b:bb:27:ff:ac:b4:73:23:4d:
        65:f2:15:23:d1:09:3b:96:eb:b4:40:97:bf:1f:71:4b:40:ec:
        7f:14:5f:64:9c:82:a3:22:6f:c6:83:bd:d8:bc:d2:92:fd:ff:
        87:3c:c7:9f:15:ce:2c:3c:88:71:71:59:43:74:64:e2:b7:84:
        dd:5c:1d:50:5f:9a:d6:25:41:0e:15:52:d5:fd:37:db:29:ea:
        68:6d:31:ad:d1:ed:a3:3b:51:af:1b:a6:ff:c8:82:54:b7:ff:
        10:f2:04:3d:5f:46:12:30:30:84:9d:a8:44:51:7e:0e:cb:7e:
        80:dc:7b:fe:14:51:9e:db:3c:9a:a8:e9:d0:00:db:0b:87:4a:
        a7:d8:79:6a:87:82:53:3b:6f:96:71:1f:15:8f:f3:c1:55:ad:
        14:c2:37:39:6e:94:b0:02:de:3e:7f:df:aa:44:d7:8f:88:5e:
        82:13:60:fc:54:67:0f:64:5e:67:c8:6b:0d:fc:6e:b6:dc:c2:
        43:66:72:88:d4:3d:e3:4d:54:16:2f:60:e5:be:89:b6:43:bc:
        de:09:06:9d:b2:0c:17:8f
-----BEGIN CERTIFICATE-----
MIIGijCCBHKgAwIBAgIRANCkaUFOxcW7EoH8AFus/nQwDQYJKoZIhvcNAQELBQAw
MDELMAkGA1UEBhMCRVMxDzANBgNVBAoMBnRlbGVjbzEQMA4GA1UEAwwHUm9vdCBD
QTAeFw0yNDA2MzAxODU3MDFaFw0zNDA2MjgxODU3MDFaMDcxCzAJBgNVBAYTAkVT
MQ8wDQYDVQQKDAZ0ZWxlY28xFzAVBgNVBAMMDlN1YiBDQSBDbGllbnRlMIICIjAN
BgkqhkiG9w0BAQEFAAOCAg8AMIICCgKCAgEAr4cWj9V2V4rz7xuPjzdLWVKiMTwZ
3XyvyaCoPhrkLbGkWo6F4Sio6y7fn5c7+A/JbAyQ3JoOWy6azL0uuRgy4fcDYA0J
VfFu7YZ0APv2tgEHutZZd+itkJPS5dyEEul6LBhUbJJja7O19WPlgCmiOzzNuiN+
QvLyu3BE93/WGwYaVE9jjMknXDntmlQkVkmChMAS5h05GbnRqlW1e8a9X8LrF0KV
Gq+WrHvmMcds8TGIIce0KdYOaQdG7EGJZOool1o1DzrzCJFyH2/d3xzp1Cz7Kk4H
tD+O12f1rQR0hwfasMVpHISDYTm6cDCsqjgKIDmOst6gI4v2d0W7UI2oWbPt8kMR
vEc2+ITqu/vC/7VFfkQYTvwUdwCjDeezPUJPbyrFaX3Axd5Nb8q6x90mJ/imSDbJ
MRiJOrqkK+sZ11Q2mD5zfKCNJ3iCRCs0eb3nBzDfTPN25PGaGCX+j98wHZjQsDcU
gadUzKmv0EPKnso+Qwcnq7EzoLLC9tkn1PpT+ySKMi3GP4LizIxDmMm6u7T0ldDc
fD/9BDZg6sbz8y+vxGoPp7s5uwb7f3q7WkOaqmWnMDlosNZEOY4+dK7pOZsXGQYG
G1xhXTLi490TlV8sevvQtdvmKvM4xYtbTolI+Y55BBpITedED3DlgfTjYhvL6hcJ
+oC2vyJXgVf3MUECAwEAAaOCAZYwggGSMHYGCCsGAQUFBwEBBGowaDAzBggrBgEF
BQcwAoYnaHR0cDovL3Jvb3QtY2EudGVsZWNvLnV2aWdvL3Jvb3QtY2EuY3J0MDEG
CCsGAQUFBzABhiVodHRwOi8vb2NzcC5yb290LWNhLnRlbGVjby51dmlnbzo5MDgw
MB8GA1UdIwQYMBaAFOIgyeCcdAyhlGyW43cXdvvS6Z0lMBIGA1UdEwEB/wQIMAYB
Af8CAQAwOAYDVR0fBDEwLzAtoCugKYYnaHR0cDovL3Jvb3QtY2EudGVsZWNvLnV2
aWdvL3Jvb3QtY2EuY3JsMB0GA1UdJQQWMBQGCCsGAQUFBwMCBggrBgEFBQcDATAO
BgNVHQ8BAf8EBAMCAQYwWwYDVR0eBFQwUqAeMA2CC2V4YW1wbGUuY29tMA2CC2V4
YW1wbGUub3JnoTAwCocIAAAAAAAAAAAwIocgAAAAAAAAAAAAAAAAAAAAAAAAAAAA
AAAAAAAAAAAAAAAwHQYDVR0OBBYEFOjocGcMsPLCBR34Koh0r/V5ce3lMA0GCSqG
SIb3DQEBCwUAA4ICAQCvC6h27pzmnJ4ePZZarSlC+DmNWR3sfLJkd2DLhh/TTO0X
57QJdr3CBFaiB2rO08VAD+8JvooVYLl8YQVMiyYp8TmFb6ud4W4JHQu54J3+su0D
0o04pF/fPw5QOEJXK+2D+BmbJXA8kn5g3lDi3PVNiNqHliyOXeetOUXD3dJ8yYQY
taDJEZPb8KeEbOGXmorWyOYxhvhnKdyUyc4ppI62CSAqjx3yabS6FHw0FOlEyMum
/D1rVkhKIxrwkexVc2iiTBJ/JfqF9tSfhxIlPgHxe14gc/+GVlz+kSK79WmPWYMp
ya0+npTm/F7+8o3GOdR7mIEvFrYQt/jkggJt1Nh7jhOZkCjiKKNsUTMVh6lfHBCt
dy+429VxeBL5NzH44soKhEAh5pd7A0o7uyf/rLRzI01l8hUj0Qk7luu0QJe/H3FL
QOx/FF9knIKjIm/Gg73YvNKS/f+HPMefFc4sPIhxcVlDdGTit4TdXB1QX5rWJUEO
FVLV/TfbKepobTGt0e2jO1GvG6b/yIJUt/8Q8gQ9X0YSMDCEnahEUX4Oy36A3Hv+
FFGe2zyaqOnQANsLh0qn2Hlqh4JTO2+WcR8Vj/PBVa0Uwjc5bpSwAt4+f9+qRNeP
iF6CE2D8VGcPZF5nyGsN/G623MJDZnKI1D3jTVQWL2Dlvom2Q7zeCQadsgwXjw==
-----END CERTIFICATE-----
