Certificate:
    Data:
        Version: 3 (0x2)
        Serial Number:
            d0:a4:69:41:4e:c5:c5:bb:12:81:fc:00:5b:ac:fe:73
        Signature Algorithm: sha256WithRSAEncryption
        Issuer: C=ES, O=teleco, CN=Root CA
        Validity
            Not Before: Jun 30 18:56:12 2024 GMT
            Not After : Jun 28 18:56:12 2034 GMT
        Subject: C=ES, O=teleco, CN=Sub CA Cliente
        Subject Public Key Info:
            Public Key Algorithm: rsaEncryption
                Public-Key: (4096 bit)
                Modulus:
                    00:af:87:16:8f:d5:76:57:8a:f3:ef:1b:8f:8f:37:
                    4b:59:52:a2:31:3c:19:dd:7c:af:c9:a0:a8:3e:1a:
                    e4:2d:b1:a4:5a:8e:85:e1:28:a8:eb:2e:df:9f:97:
                    3b:f8:0f:c9:6c:0c:90:dc:9a:0e:5b:2e:9a:cc:bd:
                    2e:b9:18:32:e1:f7:03:60:0d:09:55:f1:6e:ed:86:
                    74:00:fb:f6:b6:01:07:ba:d6:59:77:e8:ad:90:93:
                    d2:e5:dc:84:12:e9:7a:2c:18:54:6c:92:63:6b:b3:
                    b5:f5:63:e5:80:29:a2:3b:3c:cd:ba:23:7e:42:f2:
                    f2:bb:70:44:f7:7f:d6:1b:06:1a:54:4f:63:8c:c9:
                    27:5c:39:ed:9a:54:24:56:49:82:84:c0:12:e6:1d:
                    39:19:b9:d1:aa:55:b5:7b:c6:bd:5f:c2:eb:17:42:
                    95:1a:af:96:ac:7b:e6:31:c7:6c:f1:31:88:21:c7:
                    b4:29:d6:0e:69:07:46:ec:41:89:64:ea:28:97:5a:
                    35:0f:3a:f3:08:91:72:1f:6f:dd:df:1c:e9:d4:2c:
                    fb:2a:4e:07:b4:3f:8e:d7:67:f5:ad:04:74:87:07:
                    da:b0:c5:69:1c:84:83:61:39:ba:70:30:ac:aa:38:
                    0a:20:39:8e:b2:de:a0:23:8b:f6:77:45:bb:50:8d:
                    a8:59:b3:ed:f2:43:11:bc:47:36:f8:84:ea:bb:fb:
                    c2:ff:b5:45:7e:44:18:4e:fc:14:77:00:a3:0d:e7:
                    b3:3d:42:4f:6f:2a:c5:69:7d:c0:c5:de:4d:6f:ca:
                    ba:c7:dd:26:27:f8:a6:48:36:c9:31:18:89:3a:ba:
                    a4:2b:eb:19:d7:54:36:98:3e:73:7c:a0:8d:27:78:
                    82:44:2b:34:79:bd:e7:07:30:df:4c:f3:76:e4:f1:
                    9a:18:25:fe:8f:df:30:1d:98:d0:b0:37:14:81:a7:
                    54:cc:a9:af:d0:43:ca:9e:ca:3e:43:07:27:ab:b1:
                    33:a0:b2:c2:f6:d9:27:d4:fa:53:fb:24:8a:32:2d:
                    c6:3f:82:e2:cc:8c:43:98:c9:ba:bb:b4:f4:95:d0:
                    dc:7c:3f:fd:04:36:60:ea:c6:f3:f3:2f:af:c4:6a:
                    0f:a7:bb:39:bb:06:fb:7f:7a:bb:5a:43:9a:aa:65:
                    a7:30:39:68:b0:d6:44:39:8e:3e:74:ae:e9:39:9b:
                    17:19:06:06:1b:5c:61:5d:32:e2:e3:dd:13:95:5f:
                    2c:7a:fb:d0:b5:db:e6:2a:f3:38:c5:8b:5b:4e:89:
                    48:f9:8e:79:04:1a:48:4d:e7:44:0f:70:e5:81:f4:
                    e3:62:1b:cb:ea:17:09:fa:80:b6:bf:22:57:81:57:
                    f7:31:41
                Exponent: 65537 (0x10001)
        X509v3 extensions:
            Authority Information Access: 
                CA Issuers - URI:http://root-ca.teleco.uvigo/root-ca.crt
                OCSP - URI:http://ocsp.root-ca.teleco.uvigo:9080
            X509v3 Authority Key Identifier: 
                E2:20:C9:E0:9C:74:0C:A1:94:6C:96:E3:77:17:76:FB:D2:E9:9D:25
            X509v3 Basic Constraints: critical
                CA:TRUE, pathlen:0
            X509v3 CRL Distribution Points: 
                Full Name:
                  URI:http://root-ca.teleco.uvigo/root-ca.crl
            X509v3 Extended Key Usage: 
                TLS Web Client Authentication, TLS Web Server Authentication
            X509v3 Key Usage: critical
                Certificate Sign, CRL Sign
            X509v3 Name Constraints: 
                Permitted:
                  DNS:example.com
                  DNS:example.org
                Excluded:
                  IP:0.0.0.0/0.0.0.0
                  IP:0:0:0:0:0:0:0:0/0:0:0:0:0:0:0:0
            X509v3 Subject Key Identifier: 
                E8:E8:70:67:0C:B0:F2:C2:05:1D:F8:2A:88:74:AF:F5:79:71:ED:E5
    Signature Algorithm: sha256WithRSAEncryption
    Signature Value:
        82:55:7f:07:7c:63:50:03:15:37:71:58:58:83:69:76:9a:4d:
        70:45:df:64:f6:3c:40:41:0b:94:45:7e:98:b7:07:14:0b:d3:
        31:08:17:b9:fb:4c:67:bf:59:28:30:02:9c:b3:9c:58:0a:73:
        7b:1b:a8:af:f5:62:37:e4:68:b4:43:bf:d3:14:01:bb:57:e2:
        ee:e1:44:fe:d5:62:e5:56:76:39:41:64:8e:d5:36:17:98:bf:
        92:00:a0:37:d8:0b:8a:3a:86:23:a4:75:87:ca:79:5d:2e:fa:
        18:10:73:a2:c7:ae:3e:47:44:a8:81:84:cd:49:e5:f3:6b:03:
        05:65:32:33:e5:6b:cc:65:e3:be:63:24:de:a6:00:6a:74:b1:
        d7:8b:d5:47:8b:03:19:f0:b6:ac:36:dc:3c:ad:ba:5c:88:69:
        a4:f3:70:98:24:7f:42:76:76:fb:7c:f5:0e:ff:bc:56:fb:61:
        e5:25:43:40:2f:9c:49:51:6b:39:37:9e:3e:fa:97:15:67:6f:
        74:9b:0e:86:b3:ff:66:2f:28:ef:bc:b3:ac:35:9c:58:ff:73:
        9d:8e:7a:da:37:b6:7f:60:aa:4b:ea:a7:34:af:ef:ac:ea:79:
        73:f9:4c:da:ae:f7:fb:3a:e3:84:32:71:f9:a1:66:da:65:81:
        1e:0e:ea:07:ba:96:50:86:dc:38:e2:7f:84:8a:8d:1f:04:ae:
        f9:d3:24:56:70:17:b3:f8:11:f6:ec:bd:40:56:24:0e:0e:12:
        42:fe:eb:03:d3:c3:54:24:6e:68:3c:0a:27:fb:71:f2:f1:2c:
        f8:a4:56:6d:80:cd:24:44:78:5a:a1:91:4f:fa:81:63:ff:9b:
        0e:99:52:e4:51:62:20:ca:c9:3d:3d:71:9d:a6:b7:64:54:e9:
        89:8f:eb:ec:29:a3:e0:17:f8:6d:4c:bf:6e:86:9b:76:14:75:
        08:51:69:14:cf:28:b8:c5:41:e1:87:81:d9:7c:98:fb:ff:4f:
        ed:57:7f:4e:b9:cf:47:82:85:26:19:46:73:af:16:ab:5d:5f:
        67:69:34:a9:80:ac:75:e8:50:a8:01:2d:e2:5b:d1:a8:8b:dd:
        ee:ee:f2:82:a0:0b:f0:56:7a:5a:70:b5:a1:56:2d:07:d5:f3:
        29:fb:b4:ab:05:d5:4f:94:5d:e8:ce:40:0d:a9:69:be:e3:e1:
        11:4d:57:38:2f:08:4c:35:53:66:06:ff:70:62:ef:14:96:19:
        14:bb:4b:64:48:f2:19:5d:df:78:33:bd:ef:d2:c8:67:d3:d5:
        af:b2:e0:9a:44:04:80:0c:44:3b:53:18:fb:96:37:6e:93:3d:
        cf:ab:19:18:21:6c:d2:c9
-----BEGIN CERTIFICATE-----
MIIGijCCBHKgAwIBAgIRANCkaUFOxcW7EoH8AFus/nMwDQYJKoZIhvcNAQELBQAw
MDELMAkGA1UEBhMCRVMxDzANBgNVBAoMBnRlbGVjbzEQMA4GA1UEAwwHUm9vdCBD
QTAeFw0yNDA2MzAxODU2MTJaFw0zNDA2MjgxODU2MTJaMDcxCzAJBgNVBAYTAkVT
MQ8wDQYDVQQKDAZ0ZWxlY28xFzAVBgNVBAMMDlN1YiBDQSBDbGllbnRlMIICIjAN
BgkqhkiG9w0BAQEFAAOCAg8AMIICCgKCAgEAr4cWj9V2V4rz7xuPjzdLWVKiMTwZ
3XyvyaCoPhrkLbGkWo6F4Sio6y7fn5c7+A/JbAyQ3JoOWy6azL0uuRgy4fcDYA0J
VfFu7YZ0APv2tgEHutZZd+itkJPS5dyEEul6LBhUbJJja7O19WPlgCmiOzzNuiN+
QvLyu3BE93/WGwYaVE9jjMknXDntmlQkVkmChMAS5h05GbnRqlW1e8a9X8LrF0KV
Gq+WrHvmMcds8TGIIce0KdYOaQdG7EGJZOool1o1DzrzCJFyH2/d3xzp1Cz7Kk4H
tD+O12f1rQR0hwfasMVpHISDYTm6cDCsqjgKIDmOst6gI4v2d0W7UI2oWbPt8kMR
vEc2+ITqu/vC/7VFfkQYTvwUdwCjDeezPUJPbyrFaX3Axd5Nb8q6x90mJ/imSDbJ
MRiJOrqkK+sZ11Q2mD5zfKCNJ3iCRCs0eb3nBzDfTPN25PGaGCX+j98wHZjQsDcU
gadUzKmv0EPKnso+Qwcnq7EzoLLC9tkn1PpT+ySKMi3GP4LizIxDmMm6u7T0ldDc
fD/9BDZg6sbz8y+vxGoPp7s5uwb7f3q7WkOaqmWnMDlosNZEOY4+dK7pOZsXGQYG
G1xhXTLi490TlV8sevvQtdvmKvM4xYtbTolI+Y55BBpITedED3DlgfTjYhvL6hcJ
+oC2vyJXgVf3MUECAwEAAaOCAZYwggGSMHYGCCsGAQUFBwEBBGowaDAzBggrBgEF
BQcwAoYnaHR0cDovL3Jvb3QtY2EudGVsZWNvLnV2aWdvL3Jvb3QtY2EuY3J0MDEG
CCsGAQUFBzABhiVodHRwOi8vb2NzcC5yb290LWNhLnRlbGVjby51dmlnbzo5MDgw
MB8GA1UdIwQYMBaAFOIgyeCcdAyhlGyW43cXdvvS6Z0lMBIGA1UdEwEB/wQIMAYB
Af8CAQAwOAYDVR0fBDEwLzAtoCugKYYnaHR0cDovL3Jvb3QtY2EudGVsZWNvLnV2
aWdvL3Jvb3QtY2EuY3JsMB0GA1UdJQQWMBQGCCsGAQUFBwMCBggrBgEFBQcDATAO
BgNVHQ8BAf8EBAMCAQYwWwYDVR0eBFQwUqAeMA2CC2V4YW1wbGUuY29tMA2CC2V4
YW1wbGUub3JnoTAwCocIAAAAAAAAAAAwIocgAAAAAAAAAAAAAAAAAAAAAAAAAAAA
AAAAAAAAAAAAAAAwHQYDVR0OBBYEFOjocGcMsPLCBR34Koh0r/V5ce3lMA0GCSqG
SIb3DQEBCwUAA4ICAQCCVX8HfGNQAxU3cVhYg2l2mk1wRd9k9jxAQQuURX6YtwcU
C9MxCBe5+0xnv1koMAKcs5xYCnN7G6iv9WI35Gi0Q7/TFAG7V+Lu4UT+1WLlVnY5
QWSO1TYXmL+SAKA32AuKOoYjpHWHynldLvoYEHOix64+R0SogYTNSeXzawMFZTIz
5WvMZeO+YyTepgBqdLHXi9VHiwMZ8LasNtw8rbpciGmk83CYJH9Cdnb7fPUO/7xW
+2HlJUNAL5xJUWs5N54++pcVZ290mw6Gs/9mLyjvvLOsNZxY/3OdjnraN7Z/YKpL
6qc0r++s6nlz+Uzarvf7OuOEMnH5oWbaZYEeDuoHupZQhtw44n+Eio0fBK750yRW
cBez+BH27L1AViQODhJC/usD08NUJG5oPAon+3Hy8Sz4pFZtgM0kRHhaoZFP+oFj
/5sOmVLkUWIgysk9PXGdprdkVOmJj+vsKaPgF/htTL9uhpt2FHUIUWkUzyi4xUHh
h4HZfJj7/0/tV39Ouc9HgoUmGUZzrxarXV9naTSpgKx16FCoAS3iW9Goi93u7vKC
oAvwVnpacLWhVi0H1fMp+7SrBdVPlF3ozkANqWm+4+ERTVc4LwhMNVNmBv9wYu8U
lhkUu0tkSPIZXd94M73v0shn09WvsuCaRASADEQ7Uxj7ljdukz3PqxkYIWzSyQ==
-----END CERTIFICATE-----
