Certificate:
    Data:
        Version: 3 (0x2)
        Serial Number:
            7f:5a:63:2e:76:b3:00:e2:a8:e1:c0:13:cd:3a:86:d8
        Signature Algorithm: sha256WithRSAEncryption
        Issuer: C=ES, O=teleco, CN=Sub CA Server
        Validity
            Not Before: Jun 30 18:30:33 2024 GMT
            Not After : Jun 28 18:30:33 2034 GMT
        Subject: C=ES, O=teleco, CN=serverTLS
        Subject Public Key Info:
            Public Key Algorithm: rsaEncryption
                Public-Key: (2048 bit)
                Modulus:
                    00:aa:18:72:3b:db:b2:5a:a3:d8:fb:4f:ae:1e:bc:
                    44:e3:b8:17:7a:a0:60:53:d2:2d:1e:d1:b1:89:74:
                    00:34:6b:1a:67:d1:89:1f:9d:24:de:50:12:53:e7:
                    23:5f:6a:c3:e8:fa:d7:49:8b:27:2d:fc:d0:10:00:
                    8a:17:3c:c4:45:4e:be:5a:00:c4:14:86:1f:3a:17:
                    72:86:4c:52:ac:b5:96:1c:80:63:87:72:3b:1b:e1:
                    f1:2d:23:24:de:e7:5f:d0:c0:6c:fe:aa:42:29:e6:
                    aa:6d:03:ac:ae:11:58:46:54:ef:11:a8:11:19:7c:
                    8c:22:dd:38:01:1d:31:9d:f1:ca:46:cb:af:df:bd:
                    06:c6:10:d9:f3:ee:38:3f:e3:a6:28:aa:37:53:80:
                    fe:82:51:73:76:82:a8:71:6e:a3:ae:4d:51:47:85:
                    a5:b5:12:45:af:de:e8:0c:da:09:86:c2:ca:5f:78:
                    e6:84:b2:c9:39:c3:56:fc:29:2b:3a:50:20:e8:2c:
                    32:57:06:d4:9e:f6:12:3d:b0:14:91:40:1a:e7:5b:
                    4e:36:87:12:54:49:8d:3b:6a:08:61:32:4e:30:d0:
                    4a:cf:81:30:b5:fc:eb:6f:02:a9:73:7d:8f:31:49:
                    d6:0d:ba:7f:fe:0b:ec:4d:52:ab:61:4b:07:c1:12:
                    4b:d7
                Exponent: 65537 (0x10001)
        X509v3 extensions:
            Authority Information Access: 
                CA Issuers - URI:http://sub-ca-server.teleco.uvigo/sub-ca-server.crt
                OCSP - URI:http://ocsp.sub-ca-server.teleco.uvigo:9081
            X509v3 Authority Key Identifier: 
                B1:72:5A:B7:CC:F3:7C:7E:26:CF:4F:35:DF:A7:6C:09:2C:7C:19:91
            X509v3 Basic Constraints: critical
                CA:FALSE
            X509v3 CRL Distribution Points: 
                Full Name:
                  URI:http://sub-ca-server.teleco.uvigo/sub-ca-server.crl
            X509v3 Extended Key Usage: 
                TLS Web Client Authentication, TLS Web Server Authentication
            X509v3 Key Usage: critical
                Digital Signature, Key Encipherment
            X509v3 Subject Key Identifier: 
                6C:61:82:9A:E3:84:58:D4:A1:BA:10:EA:69:0C:DB:27:14:99:27:14
    Signature Algorithm: sha256WithRSAEncryption
    Signature Value:
        7f:09:ee:fa:0f:18:cf:b6:ec:1e:17:40:40:45:7f:ea:8f:fb:
        ca:35:80:49:c0:96:88:74:46:4a:1c:c0:66:79:b8:f2:e3:fc:
        c0:a4:98:b0:9b:a8:87:5c:bf:1d:38:af:82:95:aa:60:4d:ff:
        67:fb:af:14:09:d9:95:83:e5:92:8e:aa:57:87:f9:e1:15:e1:
        e2:a3:0b:64:ab:1a:1f:2e:2e:af:b3:67:62:72:df:48:f3:7b:
        1c:0d:77:6b:8c:98:5c:2b:e1:d7:07:09:f3:06:f0:ba:94:a6:
        c3:98:21:56:fc:5d:3b:41:86:0e:ed:0c:c2:78:ec:b1:9b:9b:
        56:17:42:79:e0:92:b7:e8:c7:a0:fe:9d:69:c8:f2:06:06:e1:
        56:ca:b9:47:4c:dd:ea:b8:75:0d:3a:5b:6f:20:78:c8:58:9f:
        fb:32:1e:dd:81:23:85:17:66:b1:5b:01:6d:ee:49:d1:c6:f4:
        96:4e:ab:56:5a:e6:5b:c7:ef:3b:73:c1:4d:71:bf:50:7f:65:
        3f:68:85:aa:82:c7:bb:98:20:c7:67:2c:33:60:27:51:d7:88:
        f0:83:17:90:4e:3e:ff:bc:61:1d:11:d2:52:0c:ef:62:68:37:
        8b:cb:89:be:c8:7a:66:b0:6f:c9:6e:37:d4:f7:00:5d:11:4f:
        65:50:8e:e1:ba:9a:e1:8d:0c:c6:b0:a3:20:e1:9c:33:87:c6:
        8c:72:b8:c2:68:cb:91:b4:43:32:40:22:83:ed:69:63:c7:fc:
        2b:05:3a:7e:36:ab:46:56:af:74:f4:18:bf:6f:1d:83:19:62:
        51:f4:45:56:53:6d:b7:6d:92:05:fc:16:18:9b:0c:fb:9d:ea:
        ae:f2:e9:06:e7:1e:fe:51:56:72:a1:07:62:ab:73:ab:9e:80:
        bb:50:4d:cb:b8:aa:27:5c:43:0e:99:d4:6b:f4:72:d5:f1:87:
        90:6e:de:84:9a:63:6a:8b:9b:1f:d8:89:15:49:d5:f2:22:97:
        69:3d:bc:b9:29:ef:fa:d3:7f:ad:3a:52:46:bc:3a:4d:0a:7c:
        10:c0:82:fd:2d:7e:28:ef:c7:50:e3:8c:3f:61:db:1e:42:9e:
        14:0d:4a:2e:eb:fe:33:76:f5:f7:99:26:ff:d0:52:7e:35:08:
        c8:64:29:76:e6:06:71:ea:c4:f4:20:00:28:0b:4e:31:e7:f8:
        24:09:6c:11:9c:77:d3:e8:a9:03:e0:ab:93:ac:9d:38:d4:ac:
        f1:c3:22:2f:50:50:41:10:31:e4:32:01:f8:9f:f9:f7:5d:a4:
        e0:b5:7b:9f:a6:0d:08:21:59:23:b9:0b:61:49:2c:28:25:49:
        44:51:1e:ea:1c:be:aa:8b
-----BEGIN CERTIFICATE-----
MIIFRjCCAy6gAwIBAgIQf1pjLnazAOKo4cATzTqG2DANBgkqhkiG9w0BAQsFADA2
MQswCQYDVQQGEwJFUzEPMA0GA1UECgwGdGVsZWNvMRYwFAYDVQQDDA1TdWIgQ0Eg
U2VydmVyMB4XDTI0MDYzMDE4MzAzM1oXDTM0MDYyODE4MzAzM1owMjELMAkGA1UE
BhMCRVMxDzANBgNVBAoMBnRlbGVjbzESMBAGA1UEAwwJc2VydmVyVExTMIIBIjAN
BgkqhkiG9w0BAQEFAAOCAQ8AMIIBCgKCAQEAqhhyO9uyWqPY+0+uHrxE47gXeqBg
U9ItHtGxiXQANGsaZ9GJH50k3lASU+cjX2rD6PrXSYsnLfzQEACKFzzERU6+WgDE
FIYfOhdyhkxSrLWWHIBjh3I7G+HxLSMk3udf0MBs/qpCKeaqbQOsrhFYRlTvEagR
GXyMIt04AR0xnfHKRsuv370GxhDZ8+44P+OmKKo3U4D+glFzdoKocW6jrk1RR4Wl
tRJFr97oDNoJhsLKX3jmhLLJOcNW/CkrOlAg6CwyVwbUnvYSPbAUkUAa51tONocS
VEmNO2oIYTJOMNBKz4EwtfzrbwKpc32PMUnWDbp//gvsTVKrYUsHwRJL1wIDAQAB
o4IBUjCCAU4wgYgGCCsGAQUFBwEBBHwwejA/BggrBgEFBQcwAoYzaHR0cDovL3N1
Yi1jYS1zZXJ2ZXIudGVsZWNvLnV2aWdvL3N1Yi1jYS1zZXJ2ZXIuY3J0MDcGCCsG
AQUFBzABhitodHRwOi8vb2NzcC5zdWItY2Etc2VydmVyLnRlbGVjby51dmlnbzo5
MDgxMB8GA1UdIwQYMBaAFLFyWrfM83x+Js9PNd+nbAksfBmRMAwGA1UdEwEB/wQC
MAAwRAYDVR0fBD0wOzA5oDegNYYzaHR0cDovL3N1Yi1jYS1zZXJ2ZXIudGVsZWNv
LnV2aWdvL3N1Yi1jYS1zZXJ2ZXIuY3JsMB0GA1UdJQQWMBQGCCsGAQUFBwMCBggr
BgEFBQcDATAOBgNVHQ8BAf8EBAMCBaAwHQYDVR0OBBYEFGxhgprjhFjUoboQ6mkM
2ycUmScUMA0GCSqGSIb3DQEBCwUAA4ICAQB/Ce76DxjPtuweF0BARX/qj/vKNYBJ
wJaIdEZKHMBmebjy4/zApJiwm6iHXL8dOK+ClapgTf9n+68UCdmVg+WSjqpXh/nh
FeHiowtkqxofLi6vs2dict9I83scDXdrjJhcK+HXBwnzBvC6lKbDmCFW/F07QYYO
7QzCeOyxm5tWF0J54JK36Meg/p1pyPIGBuFWyrlHTN3quHUNOltvIHjIWJ/7Mh7d
gSOFF2axWwFt7knRxvSWTqtWWuZbx+87c8FNcb9Qf2U/aIWqgse7mCDHZywzYCdR
14jwgxeQTj7/vGEdEdJSDO9iaDeLy4m+yHpmsG/JbjfU9wBdEU9lUI7huprhjQzG
sKMg4Zwzh8aMcrjCaMuRtEMyQCKD7Wljx/wrBTp+NqtGVq909Bi/bx2DGWJR9EVW
U223bZIF/BYYmwz7nequ8ukG5x7+UVZyoQdiq3OrnoC7UE3LuKonXEMOmdRr9HLV
8YeQbt6EmmNqi5sf2IkVSdXyIpdpPby5Ke/603+tOlJGvDpNCnwQwIL9LX4o78dQ
44w/YdseQp4UDUou6/4zdvX3mSb/0FJ+NQjIZCl25gZx6sT0IAAoC04x5/gkCWwR
nHfT6KkD4KuTrJ041KzxwyIvUFBBEDHkMgH4n/n3XaTgtXufpg0IIVkjuQthSSwo
JUlEUR7qHL6qiw==
-----END CERTIFICATE-----
