Certificate:
    Data:
        Version: 3 (0x2)
        Serial Number:
            6a:88:2d:52:27:ef:9d:16:6b:af:95:71:1d:6d:e2:3d
        Signature Algorithm: sha256WithRSAEncryption
        Issuer: C=ES, O=teleco, CN=Root CA
        Validity
            Not Before: Jun 28 17:54:19 2024 GMT
            Not After : Jun 26 17:54:19 2034 GMT
        Subject: C=ES, O=teleco, CN=Client1
        Subject Public Key Info:
            Public Key Algorithm: rsaEncryption
                Public-Key: (2048 bit)
                Modulus:
                    00:be:59:43:a5:96:0b:cb:c9:67:8d:13:ab:7f:fb:
                    57:fe:7f:72:0a:78:34:14:e6:e6:cd:ec:8e:e8:4e:
                    1f:af:2d:31:c8:2a:32:9d:6f:2e:04:a4:9e:cb:cd:
                    e1:1d:3f:87:9e:41:5f:d3:06:a9:1f:a2:1b:17:76:
                    ce:98:8a:9b:4d:fb:38:da:2a:17:0b:f0:93:17:f8:
                    cd:0e:75:0e:4c:70:9b:38:2f:a1:ce:d7:ac:5b:89:
                    56:66:f4:81:e8:df:80:d2:4b:54:c9:31:ee:4a:2b:
                    8b:e6:47:1b:85:b8:a3:f0:a8:24:f7:62:c4:c9:5f:
                    46:40:f7:76:8e:cd:8b:6b:fc:4f:6f:4d:0a:99:59:
                    01:9b:ac:14:fc:db:0d:f8:f1:c1:e3:6e:51:40:c3:
                    13:8f:4e:de:2f:91:49:49:ff:07:e6:5c:fc:48:ec:
                    c5:95:a7:51:01:e2:ec:91:72:ef:fd:5c:47:80:08:
                    3f:cd:95:bc:cc:4c:0c:e7:c3:a0:5d:a5:aa:61:f4:
                    6b:14:ef:10:20:1d:e6:57:f9:48:f4:a2:57:6a:02:
                    c9:83:fe:3a:23:32:6a:84:4c:42:bb:b2:34:56:9e:
                    60:5c:fb:18:6a:2b:6c:9c:50:49:c2:ad:9a:19:2e:
                    00:74:04:e6:06:0b:35:e7:55:20:f9:c6:31:6d:36:
                    7e:d7
                Exponent: 65537 (0x10001)
        X509v3 extensions:
            Authority Information Access: 
                CA Issuers - URI:http://root-ca.teleco.uvigo/root-ca.crt
                OCSP - URI:http://ocsp.root-ca.teleco.uvigo:9080
            X509v3 Authority Key Identifier: 
                F8:DB:9E:DA:E8:20:2E:99:26:81:D7:F7:DB:46:18:5B:AB:D5:D0:A3
            X509v3 Basic Constraints: critical
                CA:FALSE
            X509v3 Extended Key Usage: 
                TLS Web Client Authentication
            X509v3 Key Usage: critical
                Digital Signature
            X509v3 Subject Key Identifier: 
                24:28:25:3B:1B:45:67:F3:BF:3C:22:88:71:F9:E3:06:5F:2A:6D:4F
    Signature Algorithm: sha256WithRSAEncryption
    Signature Value:
        79:43:cb:f0:94:1f:6e:b3:c5:da:fd:40:e7:e8:0a:71:dc:2b:
        71:b0:a3:c3:e7:b3:35:2b:22:0a:35:74:f4:7f:33:d3:1d:ea:
        2b:b4:7c:52:d4:39:2c:3f:19:f5:57:e1:09:f1:b2:96:d7:59:
        dd:5a:09:b8:17:fb:36:ef:83:17:15:b2:68:bf:11:96:e7:6b:
        18:30:a3:a2:46:49:9e:09:c4:ab:72:5d:81:b2:49:b3:f8:d6:
        d1:d1:06:7e:44:aa:d7:ad:8c:16:ae:42:e6:59:f7:3d:af:f0:
        95:02:7d:e4:1f:d6:95:e4:79:36:db:c5:b1:0b:64:38:22:b5:
        cc:23:bc:c6:e6:6d:29:9d:72:31:ac:a9:81:27:a9:b8:bc:80:
        c6:99:62:85:a0:4c:1a:71:ce:7d:8f:64:7f:4b:e8:79:40:73:
        4d:41:d7:d8:11:3d:1b:4d:7f:47:27:ce:61:12:86:44:7d:7b:
        fb:cc:d1:c1:7e:06:f7:09:c8:da:ff:61:47:9d:98:c6:2d:10:
        41:1e:5d:b1:19:84:27:8f:04:2f:1e:8d:19:1a:b4:b4:c2:c3:
        08:61:ec:f8:30:57:85:7c:74:7a:70:dd:0e:88:0c:52:0a:85:
        d8:1c:ff:42:1f:5d:fb:4f:97:97:6c:5f:fc:6a:a1:96:0f:59:
        a2:40:bd:6f:53:40:41:62:48:b8:dc:8c:6f:f1:ff:e1:78:93:
        89:68:f0:03:ee:75:fa:b5:92:55:94:19:99:d2:67:72:9f:a4:
        7f:5c:8f:ff:2c:e8:dd:df:f5:00:da:a0:56:c1:a9:fc:38:07:
        5f:9b:19:95:96:cc:e1:2f:e6:59:ab:f6:13:c3:e8:f1:83:c6:
        c1:6a:56:9e:70:ab:44:c4:58:78:2f:46:99:52:4b:4d:0e:c4:
        3b:af:2b:85:59:61:7e:11:66:c9:b8:10:50:5c:19:f3:3f:e9:
        18:5e:3b:5f:03:80:67:c6:e8:20:4f:16:80:59:37:eb:ee:72:
        55:24:0a:59:68:18:b0:3f:23:33:b1:07:f4:46:c8:e0:d8:ff:
        ad:03:38:3f:a5:5c:c5:0b:44:13:7d:e2:8e:c7:b8:f3:7b:b6:
        82:22:17:21:49:2b:d9:f0:ff:b3:09:34:c8:c8:5e:7b:f4:39:
        88:d0:34:67:2f:c8:17:39:2e:a6:e8:97:2d:1b:49:be:56:fa:
        8b:a4:2a:ee:39:17:83:37:2a:a5:c0:dd:58:f5:9c:79:a6:0b:
        c4:c1:e2:56:14:7c:ef:99:50:67:c7:d4:41:94:71:c8:ef:5f:
        cb:f1:bb:24:6d:3e:8e:31:f4:99:f9:3f:82:86:06:4f:bd:90:
        cf:5d:23:90:66:d9:d8:09
-----BEGIN CERTIFICATE-----
MIIE2TCCAsGgAwIBAgIQaogtUifvnRZrr5VxHW3iPTANBgkqhkiG9w0BAQsFADAw
MQswCQYDVQQGEwJFUzEPMA0GA1UECgwGdGVsZWNvMRAwDgYDVQQDDAdSb290IENB
MB4XDTI0MDYyODE3NTQxOVoXDTM0MDYyNjE3NTQxOVowMDELMAkGA1UEBhMCRVMx
DzANBgNVBAoMBnRlbGVjbzEQMA4GA1UEAwwHQ2xpZW50MTCCASIwDQYJKoZIhvcN
AQEBBQADggEPADCCAQoCggEBAL5ZQ6WWC8vJZ40Tq3/7V/5/cgp4NBTm5s3sjuhO
H68tMcgqMp1vLgSknsvN4R0/h55BX9MGqR+iGxd2zpiKm037ONoqFwvwkxf4zQ51
Dkxwmzgvoc7XrFuJVmb0gejfgNJLVMkx7kori+ZHG4W4o/CoJPdixMlfRkD3do7N
i2v8T29NCplZAZusFPzbDfjxweNuUUDDE49O3i+RSUn/B+Zc/EjsxZWnUQHi7JFy
7/1cR4AIP82VvMxMDOfDoF2lqmH0axTvECAd5lf5SPSiV2oCyYP+OiMyaoRMQruy
NFaeYFz7GGorbJxQScKtmhkuAHQE5gYLNedVIPnGMW02ftcCAwEAAaOB7jCB6zB2
BggrBgEFBQcBAQRqMGgwMwYIKwYBBQUHMAKGJ2h0dHA6Ly9yb290LWNhLnRlbGVj
by51dmlnby9yb290LWNhLmNydDAxBggrBgEFBQcwAYYlaHR0cDovL29jc3Aucm9v
dC1jYS50ZWxlY28udXZpZ286OTA4MDAfBgNVHSMEGDAWgBT4257a6CAumSaB1/fb
Rhhbq9XQozAMBgNVHRMBAf8EAjAAMBMGA1UdJQQMMAoGCCsGAQUFBwMCMA4GA1Ud
DwEB/wQEAwIHgDAdBgNVHQ4EFgQUJCglOxtFZ/O/PCKIcfnjBl8qbU8wDQYJKoZI
hvcNAQELBQADggIBAHlDy/CUH26zxdr9QOfoCnHcK3Gwo8PnszUrIgo1dPR/M9Md
6iu0fFLUOSw/GfVX4QnxspbXWd1aCbgX+zbvgxcVsmi/EZbnaxgwo6JGSZ4JxKty
XYGySbP41tHRBn5EqtetjBauQuZZ9z2v8JUCfeQf1pXkeTbbxbELZDgitcwjvMbm
bSmdcjGsqYEnqbi8gMaZYoWgTBpxzn2PZH9L6HlAc01B19gRPRtNf0cnzmEShkR9
e/vM0cF+BvcJyNr/YUedmMYtEEEeXbEZhCePBC8ejRkatLTCwwhh7PgwV4V8dHpw
3Q6IDFIKhdgc/0IfXftPl5dsX/xqoZYPWaJAvW9TQEFiSLjcjG/x/+F4k4lo8APu
dfq1klWUGZnSZ3KfpH9cj/8s6N3f9QDaoFbBqfw4B1+bGZWWzOEv5lmr9hPD6PGD
xsFqVp5wq0TEWHgvRplSS00OxDuvK4VZYX4RZsm4EFBcGfM/6RheO18DgGfG6CBP
FoBZN+vuclUkClloGLA/IzOxB/RGyODY/60DOD+lXMULRBN94o7HuPN7toIiFyFJ
K9nw/7MJNMjIXnv0OYjQNGcvyBc5Lqboly0bSb5W+oukKu45F4M3KqXA3Vj1nHmm
C8TB4lYUfO+ZUGfH1EGUccjvX8vxuyRtPo4x9Jn5P4KGBk+9kM9dI5Bm2dgJ
-----END CERTIFICATE-----
