Certificate:
    Data:
        Version: 3 (0x2)
        Serial Number:
            d0:a4:69:41:4e:c5:c5:bb:12:81:fc:00:5b:ac:fe:6f
        Signature Algorithm: sha256WithRSAEncryption
        Issuer: C=ES, O=teleco, CN=Root CA
        Validity
            Not Before: Jun 29 17:49:42 2024 GMT
            Not After : Jun 27 17:49:42 2034 GMT
        Subject: C=ES, O=teleco, CN=serverTLS
        Subject Public Key Info:
            Public Key Algorithm: rsaEncryption
                Public-Key: (2048 bit)
                Modulus:
                    00:aa:18:72:3b:db:b2:5a:a3:d8:fb:4f:ae:1e:bc:
                    44:e3:b8:17:7a:a0:60:53:d2:2d:1e:d1:b1:89:74:
                    00:34:6b:1a:67:d1:89:1f:9d:24:de:50:12:53:e7:
                    23:5f:6a:c3:e8:fa:d7:49:8b:27:2d:fc:d0:10:00:
                    8a:17:3c:c4:45:4e:be:5a:00:c4:14:86:1f:3a:17:
                    72:86:4c:52:ac:b5:96:1c:80:63:87:72:3b:1b:e1:
                    f1:2d:23:24:de:e7:5f:d0:c0:6c:fe:aa:42:29:e6:
                    aa:6d:03:ac:ae:11:58:46:54:ef:11:a8:11:19:7c:
                    8c:22:dd:38:01:1d:31:9d:f1:ca:46:cb:af:df:bd:
                    06:c6:10:d9:f3:ee:38:3f:e3:a6:28:aa:37:53:80:
                    fe:82:51:73:76:82:a8:71:6e:a3:ae:4d:51:47:85:
                    a5:b5:12:45:af:de:e8:0c:da:09:86:c2:ca:5f:78:
                    e6:84:b2:c9:39:c3:56:fc:29:2b:3a:50:20:e8:2c:
                    32:57:06:d4:9e:f6:12:3d:b0:14:91:40:1a:e7:5b:
                    4e:36:87:12:54:49:8d:3b:6a:08:61:32:4e:30:d0:
                    4a:cf:81:30:b5:fc:eb:6f:02:a9:73:7d:8f:31:49:
                    d6:0d:ba:7f:fe:0b:ec:4d:52:ab:61:4b:07:c1:12:
                    4b:d7
                Exponent: 65537 (0x10001)
        X509v3 extensions:
            Authority Information Access: 
                CA Issuers - URI:http://root-ca.teleco.uvigo/root-ca.crt
                OCSP - URI:http://ocsp.root-ca.teleco.uvigo:9080
            X509v3 Authority Key Identifier: 
                E2:20:C9:E0:9C:74:0C:A1:94:6C:96:E3:77:17:76:FB:D2:E9:9D:25
            X509v3 Basic Constraints: critical
                CA:FALSE
            X509v3 CRL Distribution Points: 
                Full Name:
                  URI:http://root-ca.teleco.uvigo/root-ca.crl
            X509v3 Extended Key Usage: 
                TLS Web Client Authentication, TLS Web Server Authentication
            X509v3 Key Usage: critical
                Digital Signature, Key Encipherment
            X509v3 Subject Key Identifier: 
                6C:61:82:9A:E3:84:58:D4:A1:BA:10:EA:69:0C:DB:27:14:99:27:14
    Signature Algorithm: sha256WithRSAEncryption
    Signature Value:
        7c:fa:a9:3d:51:b1:6e:8d:e1:3a:75:f3:d9:7e:10:46:17:67:
        3a:aa:bd:19:5a:41:2f:1a:67:58:1c:6a:52:17:76:74:95:cc:
        3d:ad:68:54:17:b6:6b:f3:48:35:36:aa:8c:c7:4b:fa:b7:b4:
        bb:f6:2e:26:bd:c8:70:d6:ec:d0:7c:4f:3f:e5:49:a6:58:2d:
        b8:ca:cf:65:a2:35:69:18:68:19:a3:41:ce:55:d7:ec:03:9d:
        d3:ce:f3:59:fc:24:d2:48:5d:f2:cd:ee:b0:20:a4:82:9c:e3:
        74:1a:f4:02:fe:4b:2c:25:63:0d:0d:0d:f6:7e:98:b1:59:e5:
        39:24:75:dd:71:6c:16:8a:23:ff:d5:25:32:ac:2b:fa:4e:ce:
        55:22:64:27:41:58:f5:03:67:45:46:b9:1b:5e:af:69:69:a3:
        4b:25:4c:0e:41:53:eb:09:05:59:c6:ef:12:1c:0e:43:16:85:
        3c:09:cd:c1:82:46:7c:a4:b4:00:93:8f:64:bb:98:94:9d:45:
        ce:66:1c:fe:05:e5:13:51:37:43:0f:8a:80:3a:6a:9f:ac:f4:
        1c:09:a1:06:cd:3e:5f:9b:b0:4a:e4:5f:07:e5:54:26:73:12:
        47:f7:ce:a1:22:79:e1:5b:97:ab:64:a5:0f:f2:59:7b:95:66:
        42:e7:78:68:8d:fd:6c:ec:60:1f:fa:63:ee:34:6a:46:0b:3c:
        67:65:32:63:94:63:b2:63:80:45:26:1f:7d:d4:9e:07:03:07:
        36:2b:e3:29:c3:31:f3:7f:02:38:60:75:71:d0:db:36:14:d6:
        89:ca:cf:b2:73:d3:b8:12:d5:6e:d6:de:6a:d3:61:9b:93:67:
        0d:c6:07:ad:dd:77:5b:bd:4f:71:1b:56:ea:cd:81:58:f1:54:
        54:c5:28:3f:78:17:bc:65:93:d8:d7:9b:13:41:06:c1:f3:b7:
        cb:b6:71:8c:de:99:f9:5b:e3:2b:45:71:c6:6c:64:83:27:5b:
        3e:93:fa:aa:6f:01:55:d1:6e:8a:c7:eb:e3:6f:a7:35:3c:4b:
        c0:09:7a:cc:f6:49:e5:6c:8b:a9:0b:67:50:62:ae:63:46:05:
        74:be:1a:70:d2:56:5c:42:71:2f:0f:6e:40:a6:0c:91:c6:a6:
        51:b4:d1:6d:2d:db:0d:36:f3:c4:6e:a9:5c:1b:a8:c5:c9:8c:
        c5:d1:5a:47:da:d6:90:d9:11:c9:1c:c7:24:ba:89:0b:ff:26:
        05:aa:59:0d:93:04:5e:2f:6c:f4:60:de:8f:43:49:74:d3:16:
        35:85:c5:85:68:d7:ff:fc:c7:2b:88:76:3f:b9:45:94:aa:7b:
        9f:c4:a5:91:04:1d:a3:ef
-----BEGIN CERTIFICATE-----
MIIFIjCCAwqgAwIBAgIRANCkaUFOxcW7EoH8AFus/m8wDQYJKoZIhvcNAQELBQAw
MDELMAkGA1UEBhMCRVMxDzANBgNVBAoMBnRlbGVjbzEQMA4GA1UEAwwHUm9vdCBD
QTAeFw0yNDA2MjkxNzQ5NDJaFw0zNDA2MjcxNzQ5NDJaMDIxCzAJBgNVBAYTAkVT
MQ8wDQYDVQQKDAZ0ZWxlY28xEjAQBgNVBAMMCXNlcnZlclRMUzCCASIwDQYJKoZI
hvcNAQEBBQADggEPADCCAQoCggEBAKoYcjvbslqj2PtPrh68ROO4F3qgYFPSLR7R
sYl0ADRrGmfRiR+dJN5QElPnI19qw+j610mLJy380BAAihc8xEVOvloAxBSGHzoX
coZMUqy1lhyAY4dyOxvh8S0jJN7nX9DAbP6qQinmqm0DrK4RWEZU7xGoERl8jCLd
OAEdMZ3xykbLr9+9BsYQ2fPuOD/jpiiqN1OA/oJRc3aCqHFuo65NUUeFpbUSRa/e
6AzaCYbCyl945oSyyTnDVvwpKzpQIOgsMlcG1J72Ej2wFJFAGudbTjaHElRJjTtq
CGEyTjDQSs+BMLX8628CqXN9jzFJ1g26f/4L7E1Sq2FLB8ESS9cCAwEAAaOCATMw
ggEvMHYGCCsGAQUFBwEBBGowaDAzBggrBgEFBQcwAoYnaHR0cDovL3Jvb3QtY2Eu
dGVsZWNvLnV2aWdvL3Jvb3QtY2EuY3J0MDEGCCsGAQUFBzABhiVodHRwOi8vb2Nz
cC5yb290LWNhLnRlbGVjby51dmlnbzo5MDgwMB8GA1UdIwQYMBaAFOIgyeCcdAyh
lGyW43cXdvvS6Z0lMAwGA1UdEwEB/wQCMAAwOAYDVR0fBDEwLzAtoCugKYYnaHR0
cDovL3Jvb3QtY2EudGVsZWNvLnV2aWdvL3Jvb3QtY2EuY3JsMB0GA1UdJQQWMBQG
CCsGAQUFBwMCBggrBgEFBQcDATAOBgNVHQ8BAf8EBAMCBaAwHQYDVR0OBBYEFGxh
gprjhFjUoboQ6mkM2ycUmScUMA0GCSqGSIb3DQEBCwUAA4ICAQB8+qk9UbFujeE6
dfPZfhBGF2c6qr0ZWkEvGmdYHGpSF3Z0lcw9rWhUF7Zr80g1NqqMx0v6t7S79i4m
vchw1uzQfE8/5UmmWC24ys9lojVpGGgZo0HOVdfsA53TzvNZ/CTSSF3yze6wIKSC
nON0GvQC/kssJWMNDQ32fpixWeU5JHXdcWwWiiP/1SUyrCv6Ts5VImQnQVj1A2dF
RrkbXq9paaNLJUwOQVPrCQVZxu8SHA5DFoU8Cc3BgkZ8pLQAk49ku5iUnUXOZhz+
BeUTUTdDD4qAOmqfrPQcCaEGzT5fm7BK5F8H5VQmcxJH986hInnhW5erZKUP8ll7
lWZC53hojf1s7GAf+mPuNGpGCzxnZTJjlGOyY4BFJh991J4HAwc2K+MpwzHzfwI4
YHVx0Ns2FNaJys+yc9O4EtVu1t5q02Gbk2cNxget3XdbvU9xG1bqzYFY8VRUxSg/
eBe8ZZPY15sTQQbB87fLtnGM3pn5W+MrRXHGbGSDJ1s+k/qqbwFV0W6Kx+vjb6c1
PEvACXrM9knlbIupC2dQYq5jRgV0vhpw0lZcQnEvD25ApgyRxqZRtNFtLdsNNvPE
bqlcG6jFyYzF0VpH2taQ2RHJHMckuokL/yYFqlkNkwReL2z0YN6PQ0l00xY1hcWF
aNf//McriHY/uUWUqnufxKWRBB2j7w==
-----END CERTIFICATE-----
